(lp1
(lp2
I0
aI0
aI0
aI0
aI0
aI0
aI0
aI0
aI0
aI0
aI5
aI0
aI0
aI5
aI0
aI0
aI5
aI0
aI0
aI5
aI0
aI0
aI0
aI0
aI6
aI0
aI0
aI6
aI0
aI0
aI6
aI0
aI0
aI6
aI0
aI0
aI0
aI0
aI7
aI0
aI0
aI7
aI0
aI0
aI7
aI0
aI0
aI7
aI0
aI0
aI0
aI0
aI0
aI0
aa(lp3
I0
aI0
aI0
aI0
aI0
aI0
aI0
aI0
aI0
aI0
aI7
aI0
aI0
aI7
aI0
aI0
aI7
aI0
aI0
aI7
aI0
aI0
aI0
aI0
aI6
aI0
aI0
aI6
aI0
aI0
aI6
aI0
aI0
aI6
aI0
aI0
aI0
aI0
aI5
aI0
aI0
aI5
aI0
aI0
aI5
aI0
aI0
aI5
aI0
aI0
aI0
aI0
aI0
aI0
aa.