(lp1
(lp2
L0L
aL0L
aL0L
aL0L
aL0L
aL0L
aL0L
aL0L
aL0L
aL0L
aL0L
aL0L
aL0L
aL0L
aL0L
aL0L
aL0L
aL0L
aL0L
aL0L
aL0L
aL0L
aL0L
aL0L
aL0L
aL0L
aL0L
aL3L
aL0L
aL3L
aL0L
aL0L
aL0L
aL0L
aL1L
aL0L
aL0L
aL1L
aL0L
aL4L
aL0L
aL0L
aL0L
aL0L
aL4L
aL0L
aL0L
aL0L
aL0L
aL0L
aL0L
aL4L
aL4L
aL0L
aL3L
aL0L
aL0L
aL0L
aL0L
aL9L
aa(lp3
L0L
aL0L
aL0L
aL0L
aL0L
aL0L
aL0L
aL0L
aL0L
aL0L
aL0L
aL0L
aL0L
aL0L
aL0L
aL0L
aL0L
aL0L
aL0L
aL0L
aL0L
aL0L
aL0L
aL0L
aL0L
aL0L
aL0L
aL0L
aL0L
aL0L
aL0L
aL0L
aL0L
aL0L
aL0L
aL0L
aL0L
aL0L
aL0L
aL4L
aL0L
aL0L
aL1L
aL0L
aL1L
aL1L
aL0L
aL1L
aL1L
aL0L
aL2L
aL0L
aL0L
aL0L
aL0L
aL9L
aL9L
aL9L
aL9L
aL9L
aa(lp4
L0L
aL0L
aL0L
aL0L
aL0L
aL0L
aL0L
aL0L
aL0L
aL0L
aL0L
aL0L
aL0L
aL0L
aL0L
aL0L
aL0L
aL0L
aL0L
aL0L
aL0L
aL0L
aL0L
aL0L
aL0L
aL0L
aL0L
aL0L
aL0L
aL0L
aL0L
aL0L
aL0L
aL0L
aL0L
aL0L
aL0L
aL0L
aL0L
aL4L
aL0L
aL1L
aL0L
aL0L
aL1L
aL1L
aL0L
aL1L
aL1L
aL0L
aL2L
aL0L
aL0L
aL0L
aL0L
aL9L
aL9L
aL9L
aL9L
aL9L
aa(lp5
L0L
aL0L
aL0L
aL0L
aL0L
aL0L
aL0L
aL0L
aL0L
aL0L
aL0L
aL0L
aL0L
aL0L
aL0L
aL0L
aL0L
aL0L
aL0L
aL4L
aL0L
aL1L
aL0L
aL0L
aL1L
aL1L
aL0L
aL1L
aL1L
aL0L
aL2L
aL0L
aL0L
aL0L
aL0L
aL9L
aL9L
aL9L
aL9L
aL9L
aL9L
aL9L
aL9L
aL9L
aL9L
aL9L
aL9L
aL9L
aL9L
aL9L
aL9L
aL9L
aL9L
aL9L
aL9L
aL9L
aL9L
aL9L
aL9L
aL9L
aa(lp6
L0L
aL0L
aL0L
aL0L
aL0L
aL0L
aL0L
aL0L
aL0L
aL0L
aL0L
aL0L
aL0L
aL0L
aL0L
aL7L
aL5L
aL6L
aL5L
aL7L
aL7L
aL6L
aL7L
aL7L
aL6L
aL6L
aL5L
aL7L
aL7L
aL5L
aL0L
aL7L
aL0L
aL0L
aL0L
aL0L
aL3L
aL3L
aL3L
aL3L
aL0L
aL3L
aL3L
aL6L
aL7L
aL7L
aL7L
aL6L
aL7L
aL7L
aL7L
aL2L
aL2L
aL3L
aL2L
aL1L
aL1L
aL2L
aL0L
aL1L
aL3L
aL3L
aL2L
aL2L
aL0L
aL0L
aL0L
aL0L
aL0L
aL0L
aL0L
aL0L
aL0L
aL9L
aL9L
aL9L
aL9L
aL9L
aL9L
aL9L
aL9L
aL9L
aL9L
aL9L
aL9L
aL9L
aL9L
aL9L
aL9L
aL9L
aL9L
aL9L
aL9L
aL9L
aL9L
aL9L
aL9L
aL9L
aL9L
aL9L
aL9L
aL9L
aL9L
aL9L
aL9L
aL9L
aL9L
aL9L
aL9L
aL9L
aL9L
aL9L
aa(lp7
L0L
aL0L
aL0L
aL0L
aL0L
aL0L
aL0L
aL0L
aL0L
aL0L
aL0L
aL0L
aL7L
aL7L
aL0L
aL7L
aL0L
aL7L
aL0L
aL2L
aL3L
aL0L
aL0L
aL0L
aL0L
aL3L
aL0L
aL0L
aL0L
aL3L
aL3L
aL0L
aL3L
aL0L
aL0L
aL0L
aL0L
aL0L
aL1L
aL0L
aL1L
aL3L
aL1L
aL0L
aL1L
aL3L
aL0L
aL1L
aL0L
aL3L
aL1L
aL3L
aL1L
aL3L
aL2L
aL1L
aL1L
aL1L
aL3L
aL0L
aL0L
aL0L
aL0L
aL0L
aL9L
aL9L
aL9L
aL9L
aL9L
aL9L
aL9L
aL9L
aL9L
aL9L
aL9L
aL9L
aL9L
aL9L
aL9L
aL9L
aL9L
aL9L
aL9L
aL9L
aL9L
aL9L
aL9L
aL9L
aL9L
aL9L
aL9L
aL9L
aL9L
aL9L
aL9L
aL9L
aL9L
aL9L
aL9L
aL9L
aL9L
aL9L
aL9L
aL9L
aL9L
aL9L
aL9L
aL9L
aL9L
aL9L
aL9L
aL9L
aa(lp8
L0L
aL0L
aL0L
aL0L
aL0L
aL0L
aL0L
aL5L
aL0L
aL0L
aL0L
aL0L
aL0L
aL0L
aL0L
aL0L
aL0L
aL5L
aL0L
aL5L
aL5L
aL5L
aL6L
aL3L
aL0L
aL0L
aL3L
aL0L
aL0L
aL3L
aL0L
aL3L
aL3L
aL0L
aL3L
aL0L
aL0L
aL3L
aL0L
aL6L
aL7L
aL0L
aL0L
aL3L
aL0L
aL3L
aL3L
aL3L
aL3L
aL3L
aL3L
aL1L
aL3L
aL3L
aL0L
aL0L
aL3L
aL3L
aL3L
aL0L
aL3L
aL0L
aL3L
aL3L
aL3L
aL3L
aL3L
aL3L
aL3L
aL3L
aL3L
aL3L
aL3L
aL3L
aL3L
aL3L
aL3L
aL3L
aL3L
aL3L
aL3L
aL3L
aL2L
aL1L
aL1L
aL2L
aL1L
aL1L
aL2L
aL3L
aL0L
aL0L
aL0L
aL9L
aL9L
aL9L
aL9L
aL9L
aL9L
aL9L
aL9L
aL9L
aL9L
aL9L
aL9L
aL9L
aL9L
aL9L
aL9L
aL9L
aL9L
aL9L
aa(lp9
L0L
aL0L
aL0L
aL0L
aL0L
aL0L
aL0L
aL3L
aL0L
aL0L
aL0L
aL0L
aL0L
aL0L
aL0L
aL0L
aL0L
aL7L
aL7L
aL0L
aL7L
aL0L
aL7L
aL7L
aL0L
aL0L
aL0L
aL0L
aL3L
aL0L
aL0L
aL1L
aL0L
aL0L
aL0L
aL0L
aL0L
aL0L
aL0L
aL0L
aL3L
aL3L
aL3L
aL0L
aL1L
aL1L
aL2L
aL7L
aL3L
aL1L
aL1L
aL1L
aL4L
aL1L
aL3L
aL1L
aL3L
aL0L
aL0L
aL0L
aL0L
aL2L
aL1L
aL0L
aL0L
aL0L
aL1L
aL0L
aL1L
aL0L
aL0L
aL0L
aL0L
aL1L
aL0L
aL1L
aL1L
aL1L
aL3L
aL0L
aL0L
aL9L
aL9L
aL9L
aL9L
aL9L
aL9L
aL9L
aL9L
aL9L
aL9L
aL9L
aL9L
aL9L
aL9L
aL9L
aL9L
aL9L
aL9L
aL9L
aL9L
aL9L
aL9L
aL9L
aL9L
aL9L
aL9L
aL9L
aL9L
aL9L
aL9L
aL9L
aa(lp10
L0L
aL0L
aL0L
aL0L
aL0L
aL0L
aL5L
aL7L
aL0L
aL0L
aL0L
aL0L
aL0L
aL0L
aL0L
aL0L
aL0L
aL0L
aL6L
aL0L
aL7L
aL5L
aL7L
aL5L
aL5L
aL6L
aL5L
aL6L
aL7L
aL7L
aL7L
aL5L
aL0L
aL0L
aL0L
aL3L
aL3L
aL0L
aL0L
aL3L
aL3L
aL3L
aL3L
aL3L
aL0L
aL3L
aL0L
aL7L
aL3L
aL7L
aL7L
aL1L
aL3L
aL0L
aL2L
aL3L
aL2L
aL1L
aL3L
aL1L
aL2L
aL3L
aL2L
aL3L
aL1L
aL3L
aL3L
aL3L
aL3L
aL3L
aL3L
aL3L
aL7L
aL7L
aL0L
aL0L
aL0L
aL0L
aL7L
aL6L
aL6L
aL9L
aL9L
aL9L
aL9L
aL9L
aL9L
aL9L
aL9L
aL9L
aL9L
aL9L
aL9L
aL9L
aL9L
aL9L
aL9L
aL9L
aL9L
aL9L
aL9L
aL9L
aL9L
aL9L
aL9L
aL9L
aL9L
aL9L
aL9L
aL9L
aL9L
aL9L
aa(lp11
L0L
aL0L
aL0L
aL0L
aL0L
aL0L
aL0L
aL0L
aL0L
aL0L
aL0L
aL0L
aL0L
aL0L
aL0L
aL0L
aL0L
aL1L
aL1L
aL0L
aL0L
aL0L
aL0L
aL0L
aL0L
aL3L
aL0L
aL0L
aL3L
aL0L
aL0L
aL1L
aL0L
aL2L
aL3L
aL3L
aL1L
aL0L
aL3L
aL0L
aL0L
aL3L
aL2L
aL0L
aL3L
aL0L
aL1L
aL3L
aL0L
aL1L
aL3L
aL3L
aL3L
aL3L
aL1L
aL3L
aL1L
aL1L
aL3L
aL1L
aL1L
aL1L
aL1L
aL0L
aL1L
aL3L
aL0L
aL2L
aL0L
aL0L
aL0L
aL0L
aL0L
aL0L
aL0L
aL2L
aL0L
aL1L
aL1L
aL1L
aL1L
aL1L
aL2L
aL3L
aL0L
aL9L
aL9L
aL9L
aL9L
aL9L
aL9L
aL9L
aL9L
aL9L
aL9L
aL9L
aL9L
aL9L
aL9L
aL9L
aL9L
aL9L
aL9L
aL9L
aL9L
aL9L
aL9L
aL9L
aL9L
aL9L
aL9L
aL9L
aa(lp12
L0L
aL0L
aL0L
aL0L
aL0L
aL6L
aL7L
aL5L
aL7L
aL0L
aL7L
aL7L
aL0L
aL0L
aL0L
aL0L
aL0L
aL0L
aL0L
aL0L
aL3L
aL3L
aL3L
aL0L
aL0L
aL3L
aL0L
aL0L
aL3L
aL0L
aL3L
aL0L
aL3L
aL3L
aL3L
aL0L
aL3L
aL3L
aL3L
aL3L
aL0L
aL0L
aL0L
aL3L
aL0L
aL0L
aL0L
aL0L
aL7L
aL3L
aL1L
aL2L
aL2L
aL3L
aL1L
aL2L
aL3L
aL2L
aL0L
aL0L
aL3L
aL0L
aL0L
aL0L
aL0L
aL0L
aL0L
aL2L
aL3L
aL3L
aL1L
aL1L
aL1L
aL0L
aL0L
aL0L
aL0L
aL0L
aL9L
aL9L
aL9L
aL9L
aL9L
aL9L
aL9L
aL9L
aL9L
aL9L
aL9L
aL9L
aL9L
aL9L
aL9L
aL9L
aL9L
aL9L
aL9L
aL9L
aL9L
aL9L
aL9L
aL9L
aL9L
aL9L
aL9L
aL9L
aL9L
aL9L
aL9L
aL9L
aL9L
aL9L
aa(lp13
L0L
aL0L
aL0L
aL0L
aL0L
aL0L
aL0L
aL0L
aL0L
aL0L
aL0L
aL0L
aL0L
aL0L
aL0L
aL0L
aL0L
aL0L
aL0L
aL0L
aL0L
aL0L
aL0L
aL0L
aL0L
aL0L
aL0L
aL0L
aL0L
aL0L
aL0L
aL0L
aL0L
aL0L
aL0L
aL3L
aL0L
aL0L
aL0L
aL0L
aL0L
aL3L
aL3L
aL0L
aL3L
aL3L
aL3L
aL3L
aL0L
aL3L
aL3L
aL0L
aL3L
aL3L
aL3L
aL3L
aL0L
aL3L
aL0L
aL0L
aL3L
aL0L
aL3L
aL2L
aL3L
aL3L
aL3L
aL3L
aL1L
aL3L
aL3L
aL0L
aL2L
aL3L
aL0L
aL2L
aL2L
aL2L
aL2L
aL0L
aL3L
aL2L
aL3L
aL2L
aL0L
aL0L
aL0L
aL9L
aL9L
aL9L
aL9L
aL9L
aL9L
aL9L
aL9L
aL9L
aL9L
aL9L
aL9L
aL9L
aL9L
aL9L
aL9L
aL9L
aL9L
aL9L
aL9L
aL9L
aL9L
aL9L
aL9L
aL9L
aa(lp14
L0L
aL0L
aL0L
aL0L
aL6L
aL5L
aL7L
aL6L
aL6L
aL6L
aL6L
aL7L
aL5L
aL5L
aL7L
aL5L
aL5L
aL0L
aL0L
aL0L
aL0L
aL7L
aL6L
aL5L
aL5L
aL9L
aL9L
aL9L
aL9L
aL9L
aL9L
aL9L
aL9L
aL9L
aL9L
aL9L
aL9L
aL9L
aL9L
aL9L
aL9L
aL9L
aL9L
aL9L
aL9L
aL9L
aL9L
aL9L
aL9L
aL9L
aL9L
aL9L
aL9L
aL9L
aL9L
aL9L
aL9L
aL9L
aL9L
aL9L
aL9L
aL9L
aL9L
aL9L
aL9L
aL9L
aL9L
aL9L
aL9L
aL9L
aL9L
aL9L
aL9L
aL9L
aL9L
aL9L
aL9L
aL9L
aL9L
aL9L
aL9L
aL9L
aL9L
aL9L
aL9L
aL9L
aL9L
aL9L
aL9L
aL9L
aL9L
aL9L
aL9L
aL9L
aL9L
aL9L
aL9L
aL9L
aL9L
aL9L
aL9L
aL9L
aL9L
aL9L
aL9L
aL9L
aL9L
aL9L
aL9L
aL9L
aL9L
aL9L
aa(lp15
L0L
aL7L
aL7L
aL7L
aL7L
aL7L
aL7L
aL7L
aL7L
aL7L
aL7L
aL7L
aL7L
aL7L
aL5L
aL6L
aL6L
aL7L
aL0L
aL7L
aL7L
aL7L
aL5L
aL7L
aL7L
aL7L
aL0L
aL0L
aL3L
aL0L
aL3L
aL3L
aL3L
aL3L
aL0L
aL3L
aL3L
aL2L
aL1L
aL3L
aL2L
aL3L
aL3L
aL7L
aL6L
aL7L
aL6L
aL6L
aL7L
aL6L
aL6L
aL6L
aL6L
aL7L
aL7L
aL7L
aL7L
aL3L
aL3L
aL3L
aL2L
aL3L
aL3L
aL3L
aL3L
aL3L
aL3L
aL3L
aL3L
aL3L
aL2L
aL3L
aL2L
aL0L
aL0L
aL3L
aL3L
aL3L
aL2L
aL3L
aL3L
aL3L
aL0L
aL9L
aL9L
aL9L
aL9L
aL9L
aL9L
aL9L
aL9L
aL9L
aL9L
aL9L
aL9L
aL9L
aL9L
aL9L
aL9L
aL9L
aL9L
aL9L
aL9L
aL9L
aL9L
aL9L
aL9L
aL9L
aL9L
aL9L
aL9L
aL9L
aa(lp16
L0L
aL0L
aL0L
aL0L
aL0L
aL0L
aL0L
aL0L
aL7L
aL7L
aL7L
aL7L
aL0L
aL0L
aL0L
aL0L
aL0L
aL0L
aL0L
aL0L
aL0L
aL5L
aL6L
aL5L
aL5L
aL5L
aL9L
aL9L
aL9L
aL9L
aL9L
aL9L
aL9L
aL9L
aL9L
aL9L
aL9L
aL9L
aL9L
aL9L
aL9L
aL9L
aL9L
aL9L
aL9L
aL9L
aL9L
aL9L
aL9L
aL9L
aL9L
aL9L
aL9L
aL9L
aL9L
aL9L
aL9L
aL9L
aL9L
aL9L
aL9L
aL9L
aL9L
aL9L
aL9L
aL9L
aL9L
aL9L
aL9L
aL9L
aL9L
aL9L
aL9L
aL9L
aL9L
aL9L
aL9L
aL9L
aL9L
aL9L
aL9L
aL9L
aL9L
aL9L
aL9L
aL9L
aL9L
aL9L
aL9L
aL9L
aL9L
aL9L
aL9L
aL9L
aL9L
aL9L
aL9L
aL9L
aL9L
aL9L
aL9L
aL9L
aL9L
aL9L
aL9L
aL9L
aL9L
aL9L
aL9L
aL9L
aL9L
aL9L
aa(lp17
L0L
aL0L
aL0L
aL7L
aL7L
aL6L
aL5L
aL5L
aL6L
aL5L
aL5L
aL5L
aL5L
aL6L
aL5L
aL6L
aL0L
aL7L
aL0L
aL0L
aL6L
aL0L
aL0L
aL0L
aL0L
aL7L
aL5L
aL5L
aL7L
aL7L
aL0L
aL7L
aL7L
aL0L
aL0L
aL6L
aL0L
aL0L
aL0L
aL0L
aL3L
aL3L
aL0L
aL0L
aL0L
aL0L
aL0L
aL0L
aL0L
aL0L
aL0L
aL0L
aL3L
aL3L
aL3L
aL3L
aL3L
aL3L
aL3L
aL3L
aL2L
aL3L
aL3L
aL3L
aL3L
aL3L
aL3L
aL3L
aL3L
aL3L
aL3L
aL3L
aL0L
aL3L
aL0L
aL3L
aL3L
aL0L
aL3L
aL0L
aL2L
aL0L
aL0L
aL0L
aL0L
aL0L
aL3L
aL0L
aL0L
aL3L
aL3L
aL3L
aL0L
aL2L
aL3L
aL0L
aL3L
aL0L
aL0L
aL3L
aL0L
aL0L
aL0L
aL0L
aL9L
aL9L
aL9L
aL9L
aL9L
aL9L
aL9L
aL9L
aa(lp18
L0L
aL0L
aL0L
aL0L
aL7L
aL0L
aL7L
aL7L
aL6L
aL5L
aL6L
aL5L
aL5L
aL5L
aL7L
aL0L
aL0L
aL0L
aL0L
aL0L
aL0L
aL0L
aL0L
aL0L
aL0L
aL0L
aL0L
aL0L
aL0L
aL0L
aL2L
aL0L
aL0L
aL0L
aL0L
aL0L
aL0L
aL0L
aL0L
aL3L
aL3L
aL3L
aL3L
aL3L
aL3L
aL7L
aL7L
aL2L
aL3L
aL7L
aL3L
aL7L
aL2L
aL2L
aL7L
aL1L
aL2L
aL3L
aL2L
aL3L
aL2L
aL3L
aL0L
aL3L
aL3L
aL3L
aL3L
aL3L
aL3L
aL3L
aL3L
aL3L
aL3L
aL3L
aL3L
aL3L
aL3L
aL3L
aL3L
aL3L
aL3L
aL3L
aL3L
aL1L
aL2L
aL1L
aL3L
aL0L
aL0L
aL0L
aL9L
aL9L
aL9L
aL9L
aL9L
aL9L
aL9L
aL9L
aL9L
aL9L
aL9L
aL9L
aL9L
aL9L
aL9L
aL9L
aL9L
aL9L
aL9L
aL9L
aL9L
aL9L
aa(lp19
L0L
aL0L
aL0L
aL7L
aL7L
aL7L
aL7L
aL7L
aL7L
aL6L
aL6L
aL5L
aL5L
aL5L
aL5L
aL0L
aL0L
aL0L
aL0L
aL0L
aL0L
aL0L
aL5L
aL0L
aL5L
aL6L
aL5L
aL5L
aL6L
aL5L
aL6L
aL5L
aL6L
aL5L
aL7L
aL0L
aL0L
aL0L
aL5L
aL7L
aL0L
aL0L
aL3L
aL3L
aL3L
aL0L
aL3L
aL0L
aL0L
aL3L
aL3L
aL3L
aL0L
aL3L
aL3L
aL3L
aL2L
aL0L
aL0L
aL3L
aL3L
aL3L
aL0L
aL0L
aL2L
aL3L
aL3L
aL3L
aL0L
aL2L
aL3L
aL0L
aL2L
aL3L
aL3L
aL3L
aL0L
aL3L
aL3L
aL3L
aL2L
aL0L
aL0L
aL3L
aL0L
aL3L
aL3L
aL3L
aL2L
aL0L
aL1L
aL1L
aL3L
aL2L
aL3L
aL3L
aL1L
aL0L
aL0L
aL3L
aL3L
aL1L
aL3L
aL0L
aL0L
aL0L
aL9L
aL9L
aL9L
aL9L
aL9L
aL9L
aa(lp20
L0L
aL0L
aL0L
aL7L
aL7L
aL7L
aL6L
aL6L
aL6L
aL6L
aL5L
aL6L
aL5L
aL0L
aL0L
aL0L
aL0L
aL0L
aL0L
aL0L
aL0L
aL0L
aL5L
aL6L
aL6L
aL7L
aL7L
aL5L
aL6L
aL6L
aL5L
aL6L
aL5L
aL5L
aL7L
aL5L
aL7L
aL6L
aL5L
aL7L
aL3L
aL0L
aL0L
aL3L
aL3L
aL0L
aL3L
aL3L
aL3L
aL3L
aL0L
aL3L
aL6L
aL7L
aL0L
aL0L
aL0L
aL0L
aL0L
aL0L
aL0L
aL7L
aL2L
aL3L
aL3L
aL3L
aL2L
aL3L
aL3L
aL2L
aL2L
aL3L
aL3L
aL2L
aL3L
aL3L
aL0L
aL0L
aL0L
aL0L
aL0L
aL0L
aL0L
aL0L
aL0L
aL0L
aL0L
aL0L
aL0L
aL0L
aL0L
aL0L
aL9L
aL9L
aL9L
aL9L
aL9L
aL9L
aL9L
aL9L
aL9L
aL9L
aL9L
aL9L
aL9L
aL9L
aL9L
aL9L
aL9L
aL9L
aL9L
aL9L
aa(lp21
L0L
aL0L
aL0L
aL0L
aL7L
aL0L
aL5L
aL7L
aL6L
aL6L
aL6L
aL5L
aL0L
aL0L
aL0L
aL0L
aL0L
aL0L
aL6L
aL5L
aL5L
aL5L
aL5L
aL5L
aL5L
aL5L
aL5L
aL5L
aL5L
aL5L
aL5L
aL5L
aL5L
aL0L
aL6L
aL5L
aL0L
aL5L
aL7L
aL3L
aL0L
aL3L
aL3L
aL3L
aL3L
aL0L
aL2L
aL1L
aL0L
aL3L
aL3L
aL2L
aL2L
aL3L
aL2L
aL3L
aL3L
aL3L
aL3L
aL2L
aL3L
aL2L
aL2L
aL0L
aL0L
aL0L
aL0L
aL3L
aL0L
aL0L
aL0L
aL9L
aL9L
aL9L
aL9L
aL9L
aL9L
aL9L
aL9L
aL9L
aL9L
aL9L
aL9L
aL9L
aL9L
aL9L
aL9L
aL9L
aL9L
aL9L
aL9L
aL9L
aL9L
aL9L
aL9L
aL9L
aL9L
aL9L
aL9L
aL9L
aL9L
aL9L
aL9L
aL9L
aL9L
aL9L
aL9L
aL9L
aL9L
aL9L
aL9L
aL9L
aa(lp22
L0L
aL0L
aL0L
aL0L
aL0L
aL0L
aL0L
aL0L
aL0L
aL0L
aL0L
aL7L
aL0L
aL0L
aL0L
aL1L
aL0L
aL0L
aL0L
aL0L
aL0L
aL0L
aL0L
aL0L
aL0L
aL3L
aL1L
aL2L
aL1L
aL0L
aL0L
aL3L
aL0L
aL1L
aL3L
aL3L
aL1L
aL0L
aL3L
aL0L
aL3L
aL3L
aL2L
aL1L
aL2L
aL3L
aL2L
aL1L
aL1L
aL1L
aL1L
aL1L
aL1L
aL3L
aL1L
aL2L
aL3L
aL3L
aL1L
aL1L
aL1L
aL1L
aL3L
aL3L
aL3L
aL3L
aL3L
aL3L
aL3L
aL3L
aL3L
aL3L
aL1L
aL2L
aL3L
aL3L
aL0L
aL0L
aL0L
aL0L
aL0L
aL0L
aL0L
aL0L
aL0L
aL0L
aL0L
aL0L
aL3L
aL3L
aL1L
aL1L
aL3L
aL3L
aL0L
aL0L
aL0L
aL0L
aL9L
aL9L
aL9L
aL9L
aL9L
aL9L
aL9L
aL9L
aL9L
aL9L
aL9L
aL9L
aL9L
aL9L
aa(lp23
L0L
aL0L
aL0L
aL0L
aL0L
aL0L
aL0L
aL0L
aL0L
aL0L
aL0L
aL0L
aL0L
aL0L
aL0L
aL5L
aL5L
aL0L
aL6L
aL6L
aL6L
aL5L
aL0L
aL0L
aL6L
aL0L
aL7L
aL0L
aL7L
aL7L
aL7L
aL7L
aL0L
aL0L
aL3L
aL0L
aL0L
aL0L
aL0L
aL0L
aL0L
aL0L
aL3L
aL3L
aL3L
aL3L
aL0L
aL0L
aL0L
aL0L
aL0L
aL0L
aL3L
aL0L
aL0L
aL0L
aL3L
aL0L
aL0L
aL3L
aL7L
aL7L
aL2L
aL7L
aL3L
aL3L
aL0L
aL3L
aL3L
aL0L
aL1L
aL0L
aL3L
aL0L
aL3L
aL0L
aL0L
aL0L
aL0L
aL0L
aL0L
aL0L
aL0L
aL0L
aL0L
aL0L
aL0L
aL0L
aL0L
aL3L
aL3L
aL2L
aL1L
aL3L
aL0L
aL1L
aL1L
aL0L
aL0L
aL0L
aL0L
aL0L
aL0L
aL0L
aL0L
aL0L
aL0L
aL9L
aL9L
aL9L
aL9L
aL9L
aa(lp24
L0L
aL0L
aL0L
aL0L
aL0L
aL0L
aL0L
aL0L
aL0L
aL0L
aL0L
aL0L
aL0L
aL0L
aL0L
aL0L
aL0L
aL0L
aL0L
aL0L
aL0L
aL0L
aL1L
aL0L
aL0L
aL0L
aL0L
aL0L
aL0L
aL0L
aL0L
aL0L
aL1L
aL0L
aL0L
aL0L
aL0L
aL0L
aL0L
aL0L
aL0L
aL0L
aL0L
aL0L
aL3L
aL0L
aL1L
aL3L
aL3L
aL3L
aL3L
aL3L
aL3L
aL3L
aL3L
aL3L
aL0L
aL3L
aL3L
aL3L
aL1L
aL3L
aL3L
aL3L
aL3L
aL3L
aL3L
aL3L
aL3L
aL3L
aL1L
aL2L
aL1L
aL3L
aL2L
aL1L
aL3L
aL2L
aL3L
aL2L
aL1L
aL3L
aL2L
aL2L
aL2L
aL1L
aL3L
aL1L
aL2L
aL3L
aL3L
aL0L
aL0L
aL0L
aL0L
aL9L
aL9L
aL9L
aL9L
aL9L
aL9L
aL9L
aL9L
aL9L
aL9L
aL9L
aL9L
aL9L
aL9L
aL9L
aL9L
aL9L
aa(lp25
L0L
aL0L
aL0L
aL0L
aL0L
aL5L
aL5L
aL5L
aL5L
aL5L
aL6L
aL5L
aL0L
aL0L
aL0L
aL0L
aL0L
aL0L
aL0L
aL0L
aL0L
aL0L
aL5L
aL6L
aL6L
aL6L
aL5L
aL5L
aL7L
aL7L
aL2L
aL7L
aL0L
aL3L
aL0L
aL0L
aL0L
aL3L
aL1L
aL3L
aL3L
aL3L
aL3L
aL0L
aL3L
aL0L
aL3L
aL0L
aL2L
aL1L
aL7L
aL7L
aL0L
aL0L
aL0L
aL0L
aL3L
aL0L
aL0L
aL0L
aL0L
aL0L
aL0L
aL0L
aL1L
aL0L
aL0L
aL0L
aL0L
aL0L
aL0L
aL0L
aL3L
aL3L
aL3L
aL1L
aL3L
aL3L
aL3L
aL2L
aL3L
aL3L
aL1L
aL2L
aL0L
aL0L
aL9L
aL9L
aL9L
aL9L
aL9L
aL9L
aL9L
aL9L
aL9L
aL9L
aL9L
aL9L
aL9L
aL9L
aL9L
aL9L
aL9L
aL9L
aL9L
aL9L
aL9L
aL9L
aL9L
aL9L
aL9L
aL9L
aa(lp26
L0L
aL0L
aL0L
aL0L
aL0L
aL0L
aL0L
aL0L
aL5L
aL0L
aL0L
aL1L
aL1L
aL0L
aL0L
aL0L
aL0L
aL0L
aL0L
aL0L
aL0L
aL0L
aL0L
aL0L
aL0L
aL0L
aL0L
aL0L
aL0L
aL0L
aL0L
aL0L
aL0L
aL0L
aL0L
aL0L
aL0L
aL0L
aL0L
aL0L
aL0L
aL0L
aL0L
aL1L
aL1L
aL0L
aL0L
aL1L
aL0L
aL0L
aL0L
aL0L
aL0L
aL0L
aL0L
aL2L
aL3L
aL0L
aL3L
aL1L
aL1L
aL1L
aL1L
aL0L
aL1L
aL0L
aL0L
aL0L
aL0L
aL0L
aL0L
aL0L
aL0L
aL0L
aL0L
aL3L
aL3L
aL2L
aL0L
aL3L
aL3L
aL2L
aL2L
aL1L
aL3L
aL2L
aL3L
aL2L
aL3L
aL3L
aL2L
aL0L
aL1L
aL2L
aL1L
aL1L
aL1L
aL1L
aL2L
aL0L
aL2L
aL3L
aL2L
aL3L
aL2L
aL0L
aL0L
aL0L
aL0L
aL9L
aL9L
aL9L
aa(lp27
L0L
aL0L
aL0L
aL0L
aL0L
aL6L
aL6L
aL0L
aL5L
aL7L
aL6L
aL6L
aL7L
aL6L
aL0L
aL0L
aL0L
aL0L
aL0L
aL0L
aL3L
aL0L
aL3L
aL3L
aL1L
aL0L
aL3L
aL1L
aL3L
aL3L
aL0L
aL0L
aL1L
aL3L
aL3L
aL3L
aL1L
aL3L
aL3L
aL1L
aL7L
aL7L
aL7L
aL7L
aL7L
aL1L
aL3L
aL7L
aL0L
aL7L
aL0L
aL3L
aL3L
aL1L
aL7L
aL7L
aL3L
aL7L
aL3L
aL7L
aL3L
aL0L
aL7L
aL7L
aL3L
aL1L
aL3L
aL2L
aL1L
aL3L
aL3L
aL3L
aL1L
aL3L
aL3L
aL0L
aL0L
aL3L
aL3L
aL0L
aL0L
aL0L
aL0L
aL0L
aL0L
aL9L
aL9L
aL9L
aL9L
aL9L
aL9L
aL9L
aL9L
aL9L
aL9L
aL9L
aL9L
aL9L
aL9L
aL9L
aL9L
aL9L
aL9L
aL9L
aL9L
aL9L
aL9L
aL9L
aL9L
aL9L
aL9L
aL9L
aa(lp28
L0L
aL0L
aL0L
aL0L
aL0L
aL6L
aL5L
aL5L
aL5L
aL6L
aL5L
aL6L
aL5L
aL7L
aL5L
aL6L
aL7L
aL7L
aL7L
aL0L
aL5L
aL7L
aL7L
aL6L
aL7L
aL7L
aL2L
aL3L
aL7L
aL0L
aL0L
aL0L
aL3L
aL3L
aL3L
aL3L
aL3L
aL3L
aL3L
aL3L
aL3L
aL3L
aL0L
aL0L
aL0L
aL9L
aL9L
aL9L
aL9L
aL9L
aL9L
aL9L
aL9L
aL9L
aL9L
aL9L
aL9L
aL9L
aL9L
aL9L
aL9L
aL9L
aL9L
aL9L
aL9L
aL9L
aL9L
aL9L
aL9L
aL9L
aL9L
aL9L
aL9L
aL9L
aL9L
aL9L
aL9L
aL9L
aL9L
aL9L
aL9L
aL9L
aL9L
aL9L
aL9L
aL9L
aL9L
aL9L
aL9L
aL9L
aL9L
aL9L
aL9L
aL9L
aL9L
aL9L
aL9L
aL9L
aL9L
aL9L
aL9L
aL9L
aL9L
aL9L
aL9L
aL9L
aL9L
aL9L
aL9L
aL9L
aL9L
aL9L
aa(lp29
L0L
aL0L
aL0L
aL0L
aL0L
aL0L
aL1L
aL0L
aL7L
aL1L
aL3L
aL2L
aL3L
aL3L
aL0L
aL0L
aL0L
aL0L
aL0L
aL3L
aL0L
aL0L
aL0L
aL3L
aL0L
aL0L
aL0L
aL0L
aL0L
aL0L
aL0L
aL0L
aL0L
aL0L
aL0L
aL0L
aL0L
aL0L
aL0L
aL0L
aL0L
aL0L
aL3L
aL3L
aL0L
aL3L
aL3L
aL1L
aL3L
aL3L
aL1L
aL0L
aL1L
aL3L
aL0L
aL3L
aL2L
aL3L
aL1L
aL1L
aL1L
aL1L
aL0L
aL0L
aL9L
aL9L
aL9L
aL9L
aL9L
aL9L
aL9L
aL9L
aL9L
aL9L
aL9L
aL9L
aL9L
aL9L
aL9L
aL9L
aL9L
aL9L
aL9L
aL9L
aL9L
aL9L
aL9L
aL9L
aL9L
aL9L
aL9L
aL9L
aL9L
aL9L
aL9L
aL9L
aL9L
aL9L
aL9L
aL9L
aL9L
aL9L
aL9L
aL9L
aL9L
aL9L
aL9L
aL9L
aL9L
aL9L
aL9L
aL9L
aa(lp30
L0L
aL0L
aL0L
aL0L
aL0L
aL0L
aL0L
aL0L
aL0L
aL0L
aL6L
aL7L
aL5L
aL7L
aL6L
aL5L
aL7L
aL7L
aL0L
aL0L
aL0L
aL3L
aL3L
aL3L
aL3L
aL0L
aL3L
aL0L
aL7L
aL0L
aL0L
aL6L
aL7L
aL7L
aL7L
aL7L
aL7L
aL3L
aL0L
aL1L
aL3L
aL0L
aL3L
aL3L
aL2L
aL2L
aL2L
aL2L
aL3L
aL3L
aL2L
aL3L
aL3L
aL2L
aL3L
aL2L
aL2L
aL2L
aL7L
aL3L
aL2L
aL2L
aL2L
aL2L
aL3L
aL3L
aL2L
aL3L
aL2L
aL3L
aL3L
aL2L
aL0L
aL2L
aL3L
aL0L
aL2L
aL0L
aL3L
aL2L
aL3L
aL2L
aL2L
aL2L
aL2L
aL3L
aL2L
aL0L
aL0L
aL0L
aL9L
aL9L
aL9L
aL9L
aL9L
aL9L
aL9L
aL9L
aL9L
aL9L
aL9L
aL9L
aL9L
aL9L
aL9L
aL9L
aL9L
aL9L
aL9L
aL9L
aL9L
aL9L
aa(lp31
L0L
aL0L
aL0L
aL0L
aL0L
aL0L
aL0L
aL0L
aL0L
aL0L
aL0L
aL0L
aL0L
aL0L
aL0L
aL0L
aL0L
aL0L
aL0L
aL0L
aL0L
aL5L
aL6L
aL5L
aL5L
aL5L
aL5L
aL5L
aL9L
aL9L
aL9L
aL9L
aL9L
aL9L
aL9L
aL9L
aL9L
aL9L
aL9L
aL9L
aL9L
aL9L
aL9L
aL9L
aL9L
aL9L
aL9L
aL9L
aL9L
aL9L
aL9L
aL9L
aL9L
aL9L
aL9L
aL9L
aL9L
aL9L
aL9L
aL9L
aL9L
aL9L
aL9L
aL9L
aL9L
aL9L
aL9L
aL9L
aL9L
aL9L
aL9L
aL9L
aL9L
aL9L
aL9L
aL9L
aL9L
aL9L
aL9L
aL9L
aL9L
aL9L
aL9L
aL9L
aL9L
aL9L
aL9L
aL9L
aL9L
aL9L
aL9L
aL9L
aL9L
aL9L
aL9L
aL9L
aL9L
aL9L
aL9L
aL9L
aL9L
aL9L
aL9L
aL9L
aL9L
aL9L
aL9L
aL9L
aL9L
aL9L
aL9L
aL9L
aa(lp32
L0L
aL0L
aL0L
aL0L
aL0L
aL0L
aL0L
aL0L
aL0L
aL3L
aL3L
aL3L
aL3L
aL0L
aL0L
aL3L
aL0L
aL0L
aL3L
aL3L
aL0L
aL3L
aL0L
aL3L
aL3L
aL3L
aL3L
aL3L
aL0L
aL0L
aL3L
aL3L
aL4L
aL0L
aL7L
aL0L
aL0L
aL0L
aL0L
aL7L
aL4L
aL7L
aL7L
aL7L
aL7L
aL7L
aL4L
aL7L
aL7L
aL7L
aL4L
aL7L
aL7L
aL4L
aL4L
aL4L
aL4L
aL4L
aL4L
aL4L
aL4L
aL4L
aL4L
aL4L
aL4L
aL7L
aL7L
aL4L
aL4L
aL4L
aL4L
aL0L
aL3L
aL2L
aL1L
aL1L
aL1L
aL1L
aL1L
aL1L
aL0L
aL0L
aL0L
aL0L
aL0L
aL9L
aL9L
aL9L
aL9L
aL9L
aL9L
aL9L
aL9L
aL9L
aL9L
aL9L
aL9L
aL9L
aL9L
aL9L
aL9L
aL9L
aL9L
aL9L
aL9L
aL9L
aL9L
aL9L
aL9L
aL9L
aL9L
aL9L
aa(lp33
L0L
aL0L
aL0L
aL5L
aL5L
aL7L
aL5L
aL5L
aL5L
aL5L
aL5L
aL5L
aL6L
aL5L
aL5L
aL5L
aL5L
aL0L
aL0L
aL0L
aL0L
aL0L
aL0L
aL0L
aL5L
aL0L
aL6L
aL5L
aL7L
aL5L
aL7L
aL0L
aL0L
aL0L
aL7L
aL7L
aL0L
aL0L
aL0L
aL0L
aL0L
aL3L
aL0L
aL0L
aL0L
aL3L
aL0L
aL7L
aL7L
aL0L
aL3L
aL3L
aL0L
aL3L
aL3L
aL2L
aL0L
aL0L
aL0L
aL3L
aL2L
aL0L
aL3L
aL3L
aL3L
aL3L
aL3L
aL3L
aL4L
aL3L
aL3L
aL3L
aL3L
aL4L
aL2L
aL3L
aL3L
aL3L
aL3L
aL2L
aL2L
aL3L
aL1L
aL3L
aL1L
aL0L
aL9L
aL9L
aL9L
aL9L
aL9L
aL9L
aL9L
aL9L
aL9L
aL9L
aL9L
aL9L
aL9L
aL9L
aL9L
aL9L
aL9L
aL9L
aL9L
aL9L
aL9L
aL9L
aL9L
aL9L
aL9L
aL9L
aa(lp34
L0L
aL0L
aL0L
aL7L
aL5L
aL5L
aL9L
aL9L
aL9L
aL9L
aL9L
aL9L
aL9L
aL9L
aL9L
aL9L
aL9L
aL9L
aL9L
aL9L
aL9L
aL9L
aL9L
aL9L
aL9L
aL9L
aL9L
aL9L
aL9L
aL9L
aL9L
aL9L
aL9L
aL9L
aL9L
aL9L
aL9L
aL9L
aL9L
aL9L
aL9L
aL9L
aL9L
aL9L
aL9L
aL9L
aL9L
aL9L
aL9L
aL9L
aL9L
aL9L
aL9L
aL9L
aL9L
aL9L
aL9L
aL9L
aL9L
aL9L
aL9L
aL9L
aL9L
aL9L
aL9L
aL9L
aL9L
aL9L
aL9L
aL9L
aL9L
aL9L
aL9L
aL9L
aL9L
aL9L
aL9L
aL9L
aL9L
aL9L
aL9L
aL9L
aL9L
aL9L
aL9L
aL9L
aL9L
aL9L
aL9L
aL9L
aL9L
aL9L
aL9L
aL9L
aL9L
aL9L
aL9L
aL9L
aL9L
aL9L
aL9L
aL9L
aL9L
aL9L
aL9L
aL9L
aL9L
aL9L
aL9L
aL9L
aL9L
aL9L
aa(lp35
L0L
aL3L
aL0L
aL0L
aL0L
aL0L
aL0L
aL0L
aL0L
aL0L
aL0L
aL0L
aL0L
aL0L
aL0L
aL0L
aL0L
aL0L
aL0L
aL1L
aL0L
aL0L
aL0L
aL0L
aL0L
aL0L
aL0L
aL0L
aL0L
aL0L
aL0L
aL0L
aL0L
aL0L
aL0L
aL0L
aL0L
aL0L
aL0L
aL0L
aL0L
aL0L
aL0L
aL0L
aL0L
aL0L
aL0L
aL1L
aL0L
aL0L
aL0L
aL0L
aL0L
aL0L
aL0L
aL0L
aL1L
aL0L
aL0L
aL0L
aL1L
aL2L
aL0L
aL2L
aL3L
aL0L
aL1L
aL0L
aL0L
aL0L
aL1L
aL0L
aL3L
aL0L
aL0L
aL1L
aL0L
aL1L
aL1L
aL1L
aL1L
aL1L
aL1L
aL1L
aL3L
aL0L
aL0L
aL0L
aL0L
aL9L
aL9L
aL9L
aL9L
aL9L
aL9L
aL9L
aL9L
aL9L
aL9L
aL9L
aL9L
aL9L
aL9L
aL9L
aL9L
aL9L
aL9L
aL9L
aL9L
aL9L
aL9L
aL9L
aa(lp36
L0L
aL0L
aL7L
aL5L
aL5L
aL7L
aL5L
aL7L
aL6L
aL6L
aL0L
aL5L
aL6L
aL6L
aL0L
aL6L
aL6L
aL5L
aL6L
aL7L
aL5L
aL5L
aL5L
aL6L
aL6L
aL6L
aL7L
aL7L
aL7L
aL7L
aL7L
aL7L
aL3L
aL3L
aL0L
aL3L
aL3L
aL3L
aL0L
aL0L
aL0L
aL3L
aL3L
aL3L
aL3L
aL3L
aL3L
aL3L
aL3L
aL3L
aL3L
aL3L
aL3L
aL2L
aL3L
aL3L
aL3L
aL3L
aL0L
aL3L
aL3L
aL3L
aL3L
aL3L
aL3L
aL3L
aL3L
aL3L
aL3L
aL3L
aL2L
aL3L
aL0L
aL0L
aL0L
aL0L
aL3L
aL0L
aL3L
aL1L
aL0L
aL0L
aL0L
aL0L
aL0L
aL0L
aL0L
aL0L
aL3L
aL0L
aL3L
aL0L
aL0L
aL9L
aL9L
aL9L
aL9L
aL9L
aL9L
aL9L
aL9L
aL9L
aL9L
aL9L
aL9L
aL9L
aL9L
aL9L
aL9L
aL9L
aL9L
aL9L
aa(lp37
L0L
aL0L
aL7L
aL0L
aL7L
aL6L
aL6L
aL6L
aL5L
aL6L
aL6L
aL5L
aL5L
aL5L
aL6L
aL6L
aL6L
aL7L
aL6L
aL6L
aL6L
aL5L
aL3L
aL0L
aL3L
aL3L
aL1L
aL7L
aL0L
aL0L
aL0L
aL0L
aL0L
aL0L
aL3L
aL0L
aL3L
aL3L
aL0L
aL6L
aL6L
aL0L
aL6L
aL3L
aL7L
aL7L
aL7L
aL7L
aL3L
aL3L
aL2L
aL3L
aL3L
aL3L
aL3L
aL3L
aL2L
aL3L
aL3L
aL3L
aL3L
aL3L
aL3L
aL3L
aL3L
aL3L
aL3L
aL3L
aL3L
aL3L
aL2L
aL3L
aL3L
aL3L
aL0L
aL0L
aL0L
aL0L
aL0L
aL3L
aL3L
aL0L
aL0L
aL0L
aL9L
aL9L
aL9L
aL9L
aL9L
aL9L
aL9L
aL9L
aL9L
aL9L
aL9L
aL9L
aL9L
aL9L
aL9L
aL9L
aL9L
aL9L
aL9L
aL9L
aL9L
aL9L
aL9L
aL9L
aL9L
aL9L
aL9L
aL9L
aa(lp38
L0L
aL0L
aL0L
aL7L
aL7L
aL7L
aL7L
aL6L
aL5L
aL6L
aL6L
aL5L
aL6L
aL7L
aL7L
aL6L
aL5L
aL7L
aL7L
aL6L
aL5L
aL5L
aL6L
aL5L
aL5L
aL7L
aL5L
aL6L
aL7L
aL6L
aL7L
aL6L
aL5L
aL7L
aL7L
aL0L
aL7L
aL7L
aL6L
aL7L
aL6L
aL7L
aL7L
aL3L
aL3L
aL3L
aL3L
aL3L
aL3L
aL3L
aL3L
aL3L
aL3L
aL3L
aL3L
aL6L
aL3L
aL3L
aL3L
aL0L
aL3L
aL3L
aL3L
aL2L
aL4L
aL1L
aL3L
aL3L
aL3L
aL3L
aL3L
aL3L
aL3L
aL3L
aL3L
aL3L
aL3L
aL3L
aL3L
aL3L
aL3L
aL3L
aL3L
aL1L
aL0L
aL2L
aL3L
aL0L
aL3L
aL3L
aL3L
aL3L
aL3L
aL3L
aL3L
aL0L
aL0L
aL0L
aL0L
aL9L
aL9L
aL9L
aL9L
aL9L
aL9L
aL9L
aL9L
aL9L
aL9L
aL9L
aL9L
aL9L
aa(lp39
L0L
aL0L
aL0L
aL0L
aL0L
aL0L
aL0L
aL0L
aL0L
aL0L
aL0L
aL0L
aL0L
aL6L
aL7L
aL9L
aL9L
aL9L
aL9L
aL9L
aL9L
aL9L
aL9L
aL9L
aL9L
aL9L
aL9L
aL9L
aL9L
aL9L
aL9L
aL9L
aL9L
aL9L
aL9L
aL9L
aL9L
aL9L
aL9L
aL9L
aL9L
aL9L
aL9L
aL9L
aL9L
aL9L
aL9L
aL9L
aL9L
aL9L
aL9L
aL9L
aL9L
aL9L
aL9L
aL9L
aL9L
aL9L
aL9L
aL9L
aL9L
aL9L
aL9L
aL9L
aL9L
aL9L
aL9L
aL9L
aL9L
aL9L
aL9L
aL9L
aL9L
aL9L
aL9L
aL9L
aL9L
aL9L
aL9L
aL9L
aL9L
aL9L
aL9L
aL9L
aL9L
aL9L
aL9L
aL9L
aL9L
aL9L
aL9L
aL9L
aL9L
aL9L
aL9L
aL9L
aL9L
aL9L
aL9L
aL9L
aL9L
aL9L
aL9L
aL9L
aL9L
aL9L
aL9L
aL9L
aL9L
aL9L
aL9L
aL9L
aa(lp40
L0L
aL0L
aL0L
aL0L
aL0L
aL0L
aL0L
aL7L
aL0L
aL0L
aL0L
aL0L
aL7L
aL0L
aL0L
aL0L
aL0L
aL0L
aL0L
aL0L
aL0L
aL0L
aL0L
aL0L
aL0L
aL0L
aL0L
aL0L
aL0L
aL0L
aL3L
aL0L
aL7L
aL0L
aL6L
aL0L
aL0L
aL0L
aL0L
aL0L
aL0L
aL0L
aL3L
aL3L
aL3L
aL3L
aL3L
aL3L
aL3L
aL3L
aL3L
aL3L
aL3L
aL3L
aL3L
aL0L
aL3L
aL3L
aL3L
aL3L
aL3L
aL3L
aL3L
aL0L
aL3L
aL3L
aL3L
aL3L
aL3L
aL3L
aL3L
aL3L
aL3L
aL3L
aL3L
aL3L
aL0L
aL0L
aL0L
aL0L
aL0L
aL9L
aL9L
aL9L
aL9L
aL9L
aL9L
aL9L
aL9L
aL9L
aL9L
aL9L
aL9L
aL9L
aL9L
aL9L
aL9L
aL9L
aL9L
aL9L
aL9L
aL9L
aL9L
aL9L
aL9L
aL9L
aL9L
aL9L
aL9L
aL9L
aL9L
aL9L
aa(lp41
L0L
aL0L
aL0L
aL0L
aL3L
aL0L
aL0L
aL7L
aL2L
aL0L
aL0L
aL3L
aL7L
aL7L
aL7L
aL3L
aL0L
aL0L
aL0L
aL0L
aL0L
aL0L
aL0L
aL0L
aL0L
aL1L
aL0L
aL3L
aL3L
aL3L
aL0L
aL3L
aL3L
aL2L
aL2L
aL3L
aL3L
aL9L
aL9L
aL9L
aL9L
aL9L
aL9L
aL9L
aL9L
aL9L
aL9L
aL9L
aL9L
aL9L
aL9L
aL9L
aL9L
aL9L
aL9L
aL9L
aL9L
aL9L
aL9L
aL9L
aL9L
aL9L
aL9L
aL9L
aL9L
aL9L
aL9L
aL9L
aL9L
aL9L
aL9L
aL9L
aL9L
aL9L
aL9L
aL9L
aL9L
aL9L
aL9L
aL9L
aL9L
aL9L
aL9L
aL9L
aL9L
aL9L
aL9L
aL9L
aL9L
aL9L
aL9L
aL9L
aL9L
aL9L
aL9L
aL9L
aL9L
aL9L
aL9L
aL9L
aL9L
aL9L
aL9L
aL9L
aL9L
aL9L
aL9L
aL9L
aL9L
aL9L
aL9L
aL9L
aa(lp42
L0L
aL3L
aL3L
aL0L
aL5L
aL6L
aL5L
aL9L
aL9L
aL9L
aL9L
aL9L
aL9L
aL9L
aL9L
aL9L
aL9L
aL9L
aL9L
aL9L
aL9L
aL9L
aL9L
aL9L
aL9L
aL9L
aL9L
aL9L
aL9L
aL9L
aL9L
aL9L
aL9L
aL9L
aL9L
aL9L
aL9L
aL9L
aL9L
aL9L
aL9L
aL9L
aL9L
aL9L
aL9L
aL9L
aL9L
aL9L
aL9L
aL9L
aL9L
aL9L
aL9L
aL9L
aL9L
aL9L
aL9L
aL9L
aL9L
aL9L
aL9L
aL9L
aL9L
aL9L
aL9L
aL9L
aL9L
aL9L
aL9L
aL9L
aL9L
aL9L
aL9L
aL9L
aL9L
aL9L
aL9L
aL9L
aL9L
aL9L
aL9L
aL9L
aL9L
aL9L
aL9L
aL9L
aL9L
aL9L
aL9L
aL9L
aL9L
aL9L
aL9L
aL9L
aL9L
aL9L
aL9L
aL9L
aL9L
aL9L
aL9L
aL9L
aL9L
aL9L
aL9L
aL9L
aL9L
aL9L
aL9L
aL9L
aL9L
aL9L
aa(lp43
L0L
aL0L
aL0L
aL0L
aL0L
aL0L
aL0L
aL0L
aL0L
aL0L
aL0L
aL0L
aL0L
aL0L
aL0L
aL0L
aL5L
aL6L
aL0L
aL0L
aL0L
aL0L
aL0L
aL0L
aL0L
aL0L
aL3L
aL0L
aL0L
aL3L
aL0L
aL3L
aL0L
aL0L
aL0L
aL0L
aL0L
aL0L
aL1L
aL1L
aL7L
aL0L
aL3L
aL0L
aL0L
aL3L
aL3L
aL3L
aL2L
aL3L
aL3L
aL3L
aL3L
aL3L
aL3L
aL3L
aL3L
aL3L
aL3L
aL3L
aL0L
aL3L
aL3L
aL3L
aL0L
aL0L
aL0L
aL0L
aL0L
aL3L
aL3L
aL3L
aL0L
aL3L
aL3L
aL3L
aL3L
aL3L
aL3L
aL3L
aL0L
aL3L
aL0L
aL0L
aL0L
aL0L
aL9L
aL9L
aL9L
aL9L
aL9L
aL9L
aL9L
aL9L
aL9L
aL9L
aL9L
aL9L
aL9L
aL9L
aL9L
aL9L
aL9L
aL9L
aL9L
aL9L
aL9L
aL9L
aL9L
aL9L
aL9L
aL9L
aa(lp44
L0L
aL0L
aL0L
aL0L
aL0L
aL0L
aL0L
aL0L
aL0L
aL0L
aL0L
aL0L
aL7L
aL7L
aL7L
aL0L
aL0L
aL0L
aL0L
aL0L
aL0L
aL0L
aL0L
aL0L
aL0L
aL0L
aL0L
aL0L
aL0L
aL0L
aL0L
aL0L
aL0L
aL0L
aL0L
aL3L
aL3L
aL3L
aL3L
aL3L
aL3L
aL3L
aL3L
aL2L
aL1L
aL1L
aL0L
aL0L
aL0L
aL9L
aL9L
aL9L
aL9L
aL9L
aL9L
aL9L
aL9L
aL9L
aL9L
aL9L
aL9L
aL9L
aL9L
aL9L
aL9L
aL9L
aL9L
aL9L
aL9L
aL9L
aL9L
aL9L
aL9L
aL9L
aL9L
aL9L
aL9L
aL9L
aL9L
aL9L
aL9L
aL9L
aL9L
aL9L
aL9L
aL9L
aL9L
aL9L
aL9L
aL9L
aL9L
aL9L
aL9L
aL9L
aL9L
aL9L
aL9L
aL9L
aL9L
aL9L
aL9L
aL9L
aL9L
aL9L
aL9L
aL9L
aL9L
aL9L
aL9L
aL9L
aL9L
aL9L
aa(lp45
L0L
aL0L
aL0L
aL0L
aL0L
aL0L
aL0L
aL5L
aL6L
aL0L
aL0L
aL0L
aL0L
aL7L
aL0L
aL0L
aL0L
aL5L
aL6L
aL6L
aL5L
aL5L
aL5L
aL5L
aL5L
aL6L
aL7L
aL7L
aL7L
aL5L
aL9L
aL9L
aL9L
aL9L
aL9L
aL9L
aL9L
aL9L
aL9L
aL9L
aL9L
aL9L
aL9L
aL9L
aL9L
aL9L
aL9L
aL9L
aL9L
aL9L
aL9L
aL9L
aL9L
aL9L
aL9L
aL9L
aL9L
aL9L
aL9L
aL9L
aL9L
aL9L
aL9L
aL9L
aL9L
aL9L
aL9L
aL9L
aL9L
aL9L
aL9L
aL9L
aL9L
aL9L
aL9L
aL9L
aL9L
aL9L
aL9L
aL9L
aL9L
aL9L
aL9L
aL9L
aL9L
aL9L
aL9L
aL9L
aL9L
aL9L
aL9L
aL9L
aL9L
aL9L
aL9L
aL9L
aL9L
aL9L
aL9L
aL9L
aL9L
aL9L
aL9L
aL9L
aL9L
aL9L
aL9L
aL9L
aL9L
aL9L
aL9L
aL9L
aa(lp46
L0L
aL0L
aL7L
aL7L
aL6L
aL6L
aL5L
aL5L
aL5L
aL7L
aL7L
aL0L
aL0L
aL0L
aL0L
aL0L
aL0L
aL0L
aL0L
aL0L
aL0L
aL0L
aL0L
aL0L
aL6L
aL6L
aL5L
aL5L
aL5L
aL5L
aL6L
aL6L
aL6L
aL6L
aL6L
aL6L
aL6L
aL7L
aL6L
aL6L
aL5L
aL7L
aL0L
aL0L
aL0L
aL0L
aL3L
aL0L
aL0L
aL3L
aL3L
aL1L
aL2L
aL3L
aL3L
aL3L
aL1L
aL0L
aL0L
aL0L
aL0L
aL0L
aL0L
aL3L
aL0L
aL3L
aL0L
aL3L
aL3L
aL1L
aL3L
aL2L
aL3L
aL3L
aL0L
aL3L
aL3L
aL0L
aL3L
aL2L
aL0L
aL1L
aL0L
aL3L
aL1L
aL2L
aL1L
aL1L
aL1L
aL3L
aL0L
aL0L
aL0L
aL9L
aL9L
aL9L
aL9L
aL9L
aL9L
aL9L
aL9L
aL9L
aL9L
aL9L
aL9L
aL9L
aL9L
aL9L
aL9L
aL9L
aL9L
aL9L
aa(lp47
L0L
aL0L
aL0L
aL0L
aL7L
aL5L
aL6L
aL5L
aL5L
aL5L
aL5L
aL5L
aL5L
aL5L
aL0L
aL0L
aL0L
aL0L
aL0L
aL0L
aL0L
aL6L
aL5L
aL5L
aL6L
aL0L
aL0L
aL0L
aL6L
aL0L
aL6L
aL3L
aL0L
aL2L
aL3L
aL3L
aL2L
aL3L
aL2L
aL1L
aL2L
aL3L
aL2L
aL3L
aL0L
aL3L
aL1L
aL2L
aL2L
aL3L
aL3L
aL3L
aL3L
aL3L
aL3L
aL3L
aL1L
aL3L
aL0L
aL3L
aL0L
aL3L
aL3L
aL0L
aL3L
aL3L
aL3L
aL3L
aL3L
aL3L
aL3L
aL1L
aL3L
aL3L
aL3L
aL3L
aL3L
aL3L
aL3L
aL3L
aL3L
aL3L
aL2L
aL2L
aL1L
aL1L
aL2L
aL1L
aL1L
aL3L
aL0L
aL0L
aL0L
aL9L
aL9L
aL9L
aL9L
aL9L
aL9L
aL9L
aL9L
aL9L
aL9L
aL9L
aL9L
aL9L
aL9L
aL9L
aL9L
aL9L
aL9L
aL9L
aa(lp48
L0L
aL0L
aL0L
aL7L
aL0L
aL5L
aL7L
aL0L
aL6L
aL6L
aL6L
aL6L
aL6L
aL5L
aL0L
aL0L
aL0L
aL0L
aL0L
aL7L
aL5L
aL6L
aL7L
aL5L
aL7L
aL6L
aL6L
aL7L
aL6L
aL7L
aL0L
aL0L
aL0L
aL0L
aL0L
aL0L
aL0L
aL3L
aL0L
aL0L
aL0L
aL0L
aL0L
aL0L
aL7L
aL1L
aL7L
aL4L
aL1L
aL4L
aL4L
aL0L
aL1L
aL0L
aL0L
aL0L
aL0L
aL0L
aL1L
aL0L
aL4L
aL0L
aL0L
aL0L
aL4L
aL4L
aL4L
aL4L
aL4L
aL1L
aL0L
aL2L
aL1L
aL0L
aL0L
aL1L
aL0L
aL1L
aL1L
aL1L
aL1L
aL1L
aL2L
aL0L
aL0L
aL9L
aL9L
aL9L
aL9L
aL9L
aL9L
aL9L
aL9L
aL9L
aL9L
aL9L
aL9L
aL9L
aL9L
aL9L
aL9L
aL9L
aL9L
aL9L
aL9L
aL9L
aL9L
aL9L
aL9L
aL9L
aL9L
aL9L
aa(lp49
L0L
aL0L
aL0L
aL0L
aL0L
aL5L
aL7L
aL6L
aL5L
aL6L
aL5L
aL5L
aL6L
aL7L
aL0L
aL0L
aL6L
aL6L
aL5L
aL7L
aL5L
aL5L
aL6L
aL5L
aL5L
aL5L
aL6L
aL7L
aL7L
aL0L
aL0L
aL0L
aL0L
aL7L
aL2L
aL0L
aL0L
aL0L
aL0L
aL0L
aL0L
aL0L
aL0L
aL0L
aL0L
aL0L
aL0L
aL0L
aL0L
aL0L
aL6L
aL0L
aL0L
aL3L
aL0L
aL0L
aL3L
aL0L
aL3L
aL2L
aL2L
aL2L
aL2L
aL3L
aL1L
aL3L
aL1L
aL2L
aL3L
aL2L
aL3L
aL3L
aL2L
aL1L
aL3L
aL0L
aL0L
aL3L
aL3L
aL3L
aL3L
aL3L
aL3L
aL3L
aL3L
aL1L
aL3L
aL3L
aL2L
aL3L
aL3L
aL3L
aL0L
aL0L
aL0L
aL9L
aL9L
aL9L
aL9L
aL9L
aL9L
aL9L
aL9L
aL9L
aL9L
aL9L
aL9L
aL9L
aL9L
aL9L
aL9L
aL9L
aa(lp50
L0L
aL0L
aL0L
aL0L
aL0L
aL0L
aL0L
aL0L
aL0L
aL0L
aL0L
aL0L
aL0L
aL0L
aL0L
aL0L
aL0L
aL0L
aL0L
aL0L
aL0L
aL5L
aL0L
aL0L
aL0L
aL5L
aL5L
aL0L
aL0L
aL0L
aL0L
aL0L
aL3L
aL2L
aL2L
aL1L
aL3L
aL2L
aL2L
aL1L
aL2L
aL3L
aL2L
aL2L
aL3L
aL3L
aL3L
aL3L
aL3L
aL1L
aL0L
aL2L
aL0L
aL0L
aL0L
aL0L
aL0L
aL0L
aL0L
aL0L
aL0L
aL0L
aL0L
aL0L
aL3L
aL3L
aL2L
aL3L
aL3L
aL1L
aL1L
aL2L
aL3L
aL2L
aL0L
aL3L
aL3L
aL2L
aL1L
aL1L
aL1L
aL0L
aL0L
aL0L
aL9L
aL9L
aL9L
aL9L
aL9L
aL9L
aL9L
aL9L
aL9L
aL9L
aL9L
aL9L
aL9L
aL9L
aL9L
aL9L
aL9L
aL9L
aL9L
aL9L
aL9L
aL9L
aL9L
aL9L
aL9L
aL9L
aL9L
aL9L
aa(lp51
L0L
aL0L
aL0L
aL0L
aL6L
aL7L
aL0L
aL0L
aL0L
aL0L
aL0L
aL0L
aL5L
aL0L
aL0L
aL5L
aL5L
aL5L
aL7L
aL0L
aL0L
aL7L
aL7L
aL5L
aL5L
aL7L
aL0L
aL0L
aL3L
aL6L
aL3L
aL5L
aL2L
aL3L
aL3L
aL2L
aL3L
aL1L
aL3L
aL3L
aL3L
aL3L
aL2L
aL2L
aL2L
aL2L
aL3L
aL7L
aL1L
aL3L
aL2L
aL3L
aL2L
aL3L
aL3L
aL2L
aL3L
aL3L
aL3L
aL3L
aL2L
aL2L
aL3L
aL2L
aL3L
aL3L
aL3L
aL2L
aL2L
aL3L
aL2L
aL1L
aL3L
aL1L
aL2L
aL1L
aL3L
aL0L
aL0L
aL0L
aL0L
aL0L
aL0L
aL0L
aL0L
aL0L
aL0L
aL9L
aL9L
aL9L
aL9L
aL9L
aL9L
aL9L
aL9L
aL9L
aL9L
aL9L
aL9L
aL9L
aL9L
aL9L
aL9L
aL9L
aL9L
aL9L
aL9L
aL9L
aL9L
aL9L
aL9L
aL9L
aa(lp52
L0L
aL0L
aL0L
aL0L
aL0L
aL0L
aL0L
aL0L
aL0L
aL0L
aL0L
aL0L
aL0L
aL0L
aL0L
aL0L
aL0L
aL0L
aL0L
aL0L
aL0L
aL0L
aL7L
aL6L
aL5L
aL7L
aL6L
aL6L
aL7L
aL0L
aL1L
aL0L
aL0L
aL0L
aL0L
aL0L
aL0L
aL0L
aL0L
aL0L
aL0L
aL3L
aL0L
aL0L
aL0L
aL3L
aL0L
aL1L
aL2L
aL3L
aL2L
aL3L
aL3L
aL2L
aL3L
aL1L
aL0L
aL1L
aL2L
aL0L
aL3L
aL3L
aL2L
aL1L
aL3L
aL3L
aL3L
aL1L
aL0L
aL0L
aL0L
aL0L
aL0L
aL0L
aL0L
aL0L
aL0L
aL0L
aL0L
aL3L
aL1L
aL1L
aL1L
aL2L
aL3L
aL0L
aL0L
aL0L
aL0L
aL9L
aL9L
aL9L
aL9L
aL9L
aL9L
aL9L
aL9L
aL9L
aL9L
aL9L
aL9L
aL9L
aL9L
aL9L
aL9L
aL9L
aL9L
aL9L
aL9L
aL9L
aL9L
aL9L
aa(lp53
L0L
aL0L
aL0L
aL7L
aL7L
aL6L
aL6L
aL6L
aL6L
aL6L
aL5L
aL5L
aL6L
aL6L
aL6L
aL5L
aL7L
aL0L
aL6L
aL5L
aL6L
aL5L
aL5L
aL5L
aL5L
aL5L
aL5L
aL5L
aL6L
aL7L
aL5L
aL7L
aL0L
aL5L
aL9L
aL9L
aL9L
aL9L
aL9L
aL9L
aL9L
aL9L
aL9L
aL9L
aL9L
aL9L
aL9L
aL9L
aL9L
aL9L
aL9L
aL9L
aL9L
aL9L
aL9L
aL9L
aL9L
aL9L
aL9L
aL9L
aL9L
aL9L
aL9L
aL9L
aL9L
aL9L
aL9L
aL9L
aL9L
aL9L
aL9L
aL9L
aL9L
aL9L
aL9L
aL9L
aL9L
aL9L
aL9L
aL9L
aL9L
aL9L
aL9L
aL9L
aL9L
aL9L
aL9L
aL9L
aL9L
aL9L
aL9L
aL9L
aL9L
aL9L
aL9L
aL9L
aL9L
aL9L
aL9L
aL9L
aL9L
aL9L
aL9L
aL9L
aL9L
aL9L
aL9L
aL9L
aL9L
aL9L
aL9L
aL9L
aa(lp54
L0L
aL7L
aL7L
aL7L
aL6L
aL7L
aL6L
aL7L
aL0L
aL7L
aL7L
aL7L
aL7L
aL7L
aL7L
aL3L
aL3L
aL7L
aL7L
aL3L
aL3L
aL3L
aL0L
aL3L
aL7L
aL7L
aL7L
aL7L
aL7L
aL7L
aL7L
aL3L
aL3L
aL3L
aL3L
aL3L
aL3L
aL6L
aL7L
aL3L
aL7L
aL7L
aL3L
aL3L
aL3L
aL3L
aL3L
aL3L
aL3L
aL3L
aL0L
aL0L
aL1L
aL0L
aL0L
aL0L
aL0L
aL0L
aL0L
aL0L
aL0L
aL0L
aL3L
aL0L
aL0L
aL0L
aL0L
aL3L
aL1L
aL0L
aL2L
aL0L
aL0L
aL3L
aL0L
aL0L
aL0L
aL9L
aL9L
aL9L
aL9L
aL9L
aL9L
aL9L
aL9L
aL9L
aL9L
aL9L
aL9L
aL9L
aL9L
aL9L
aL9L
aL9L
aL9L
aL9L
aL9L
aL9L
aL9L
aL9L
aL9L
aL9L
aL9L
aL9L
aL9L
aL9L
aL9L
aL9L
aL9L
aL9L
aL9L
aL9L
aa(lp55
L0L
aL0L
aL0L
aL0L
aL0L
aL0L
aL0L
aL0L
aL0L
aL0L
aL0L
aL0L
aL0L
aL0L
aL0L
aL0L
aL0L
aL0L
aL0L
aL0L
aL0L
aL0L
aL0L
aL0L
aL0L
aL0L
aL1L
aL0L
aL0L
aL0L
aL5L
aL0L
aL0L
aL0L
aL5L
aL0L
aL0L
aL0L
aL0L
aL5L
aL0L
aL0L
aL7L
aL7L
aL0L
aL3L
aL1L
aL0L
aL2L
aL2L
aL0L
aL3L
aL0L
aL1L
aL6L
aL6L
aL0L
aL0L
aL0L
aL0L
aL3L
aL3L
aL2L
aL1L
aL2L
aL2L
aL1L
aL1L
aL1L
aL1L
aL3L
aL1L
aL2L
aL3L
aL0L
aL0L
aL0L
aL9L
aL9L
aL9L
aL9L
aL9L
aL9L
aL9L
aL9L
aL9L
aL9L
aL9L
aL9L
aL9L
aL9L
aL9L
aL9L
aL9L
aL9L
aL9L
aL9L
aL9L
aL9L
aL9L
aL9L
aL9L
aL9L
aL9L
aL9L
aL9L
aL9L
aL9L
aL9L
aL9L
aL9L
aL9L
aa(lp56
L0L
aL0L
aL0L
aL7L
aL0L
aL7L
aL7L
aL7L
aL7L
aL7L
aL0L
aL6L
aL0L
aL7L
aL5L
aL6L
aL7L
aL7L
aL7L
aL7L
aL5L
aL7L
aL6L
aL7L
aL6L
aL5L
aL6L
aL5L
aL5L
aL6L
aL6L
aL7L
aL7L
aL7L
aL7L
aL7L
aL7L
aL7L
aL0L
aL7L
aL7L
aL0L
aL0L
aL0L
aL0L
aL3L
aL0L
aL0L
aL0L
aL0L
aL0L
aL0L
aL6L
aL6L
aL7L
aL7L
aL7L
aL7L
aL7L
aL7L
aL7L
aL7L
aL7L
aL3L
aL3L
aL3L
aL3L
aL3L
aL3L
aL3L
aL3L
aL0L
aL0L
aL0L
aL3L
aL0L
aL3L
aL3L
aL0L
aL0L
aL3L
aL1L
aL3L
aL0L
aL3L
aL0L
aL0L
aL0L
aL0L
aL0L
aL0L
aL0L
aL1L
aL3L
aL0L
aL1L
aL0L
aL3L
aL0L
aL0L
aL3L
aL0L
aL2L
aL2L
aL3L
aL3L
aL3L
aL0L
aL9L
aL9L
aL9L
aL9L
aa(lp57
L0L
aL0L
aL0L
aL0L
aL0L
aL0L
aL0L
aL0L
aL0L
aL5L
aL0L
aL7L
aL0L
aL0L
aL0L
aL0L
aL0L
aL6L
aL0L
aL7L
aL6L
aL7L
aL5L
aL5L
aL5L
aL6L
aL7L
aL7L
aL0L
aL0L
aL3L
aL0L
aL0L
aL0L
aL1L
aL0L
aL0L
aL0L
aL0L
aL0L
aL0L
aL0L
aL0L
aL3L
aL3L
aL7L
aL1L
aL3L
aL2L
aL3L
aL2L
aL3L
aL3L
aL2L
aL1L
aL3L
aL3L
aL3L
aL3L
aL3L
aL3L
aL0L
aL3L
aL3L
aL2L
aL3L
aL3L
aL3L
aL3L
aL3L
aL3L
aL3L
aL3L
aL3L
aL3L
aL3L
aL1L
aL3L
aL3L
aL3L
aL3L
aL3L
aL3L
aL3L
aL1L
aL1L
aL0L
aL0L
aL9L
aL9L
aL9L
aL9L
aL9L
aL9L
aL9L
aL9L
aL9L
aL9L
aL9L
aL9L
aL9L
aL9L
aL9L
aL9L
aL9L
aL9L
aL9L
aL9L
aL9L
aL9L
aL9L
aL9L
aa(lp58
L0L
aL0L
aL0L
aL7L
aL7L
aL6L
aL7L
aL5L
aL5L
aL5L
aL5L
aL5L
aL6L
aL5L
aL5L
aL0L
aL6L
aL5L
aL5L
aL5L
aL0L
aL7L
aL0L
aL5L
aL0L
aL3L
aL0L
aL3L
aL0L
aL0L
aL0L
aL2L
aL0L
aL1L
aL3L
aL3L
aL1L
aL3L
aL3L
aL1L
aL3L
aL3L
aL3L
aL3L
aL0L
aL3L
aL3L
aL3L
aL3L
aL1L
aL0L
aL0L
aL2L
aL0L
aL1L
aL3L
aL2L
aL0L
aL0L
aL3L
aL3L
aL3L
aL1L
aL3L
aL3L
aL1L
aL0L
aL3L
aL0L
aL0L
aL3L
aL0L
aL3L
aL3L
aL0L
aL3L
aL0L
aL3L
aL0L
aL0L
aL3L
aL0L
aL0L
aL1L
aL0L
aL3L
aL3L
aL3L
aL1L
aL3L
aL3L
aL2L
aL3L
aL2L
aL2L
aL0L
aL0L
aL9L
aL9L
aL9L
aL9L
aL9L
aL9L
aL9L
aL9L
aL9L
aL9L
aL9L
aL9L
aL9L
aL9L
aL9L
aa(lp59
L0L
aL0L
aL7L
aL5L
aL0L
aL6L
aL5L
aL5L
aL5L
aL6L
aL7L
aL6L
aL0L
aL0L
aL0L
aL0L
aL5L
aL6L
aL5L
aL6L
aL5L
aL7L
aL5L
aL5L
aL7L
aL0L
aL0L
aL0L
aL0L
aL7L
aL7L
aL0L
aL7L
aL0L
aL3L
aL0L
aL3L
aL3L
aL3L
aL1L
aL2L
aL2L
aL0L
aL3L
aL1L
aL3L
aL2L
aL2L
aL2L
aL1L
aL1L
aL3L
aL2L
aL1L
aL3L
aL3L
aL3L
aL3L
aL3L
aL3L
aL1L
aL1L
aL3L
aL2L
aL1L
aL0L
aL3L
aL3L
aL3L
aL0L
aL0L
aL0L
aL0L
aL0L
aL0L
aL0L
aL0L
aL3L
aL0L
aL3L
aL0L
aL3L
aL1L
aL1L
aL0L
aL0L
aL9L
aL9L
aL9L
aL9L
aL9L
aL9L
aL9L
aL9L
aL9L
aL9L
aL9L
aL9L
aL9L
aL9L
aL9L
aL9L
aL9L
aL9L
aL9L
aL9L
aL9L
aL9L
aL9L
aL9L
aL9L
aL9L
aa(lp60
L0L
aL0L
aL7L
aL7L
aL7L
aL6L
aL6L
aL5L
aL5L
aL5L
aL5L
aL5L
aL5L
aL6L
aL6L
aL6L
aL6L
aL5L
aL6L
aL0L
aL0L
aL0L
aL0L
aL6L
aL5L
aL5L
aL3L
aL0L
aL6L
aL3L
aL7L
aL6L
aL6L
aL6L
aL5L
aL6L
aL6L
aL6L
aL7L
aL6L
aL6L
aL3L
aL3L
aL3L
aL3L
aL3L
aL3L
aL3L
aL0L
aL3L
aL3L
aL3L
aL3L
aL3L
aL3L
aL3L
aL1L
aL3L
aL3L
aL3L
aL3L
aL2L
aL3L
aL2L
aL3L
aL3L
aL3L
aL3L
aL3L
aL3L
aL3L
aL3L
aL3L
aL3L
aL3L
aL0L
aL3L
aL3L
aL3L
aL3L
aL3L
aL3L
aL3L
aL1L
aL1L
aL2L
aL0L
aL0L
aL0L
aL0L
aL9L
aL9L
aL9L
aL9L
aL9L
aL9L
aL9L
aL9L
aL9L
aL9L
aL9L
aL9L
aL9L
aL9L
aL9L
aL9L
aL9L
aL9L
aL9L
aL9L
aL9L
aL9L
aa(lp61
L0L
aL0L
aL0L
aL0L
aL0L
aL0L
aL0L
aL0L
aL1L
aL0L
aL0L
aL3L
aL2L
aL2L
aL3L
aL3L
aL1L
aL3L
aL3L
aL3L
aL1L
aL3L
aL3L
aL1L
aL3L
aL0L
aL1L
aL0L
aL0L
aL2L
aL0L
aL0L
aL3L
aL1L
aL1L
aL0L
aL3L
aL1L
aL3L
aL3L
aL3L
aL3L
aL3L
aL3L
aL3L
aL0L
aL0L
aL3L
aL0L
aL0L
aL7L
aL0L
aL0L
aL7L
aL4L
aL4L
aL0L
aL4L
aL4L
aL4L
aL4L
aL0L
aL0L
aL0L
aL0L
aL0L
aL0L
aL0L
aL0L
aL0L
aL0L
aL0L
aL0L
aL0L
aL0L
aL3L
aL1L
aL3L
aL3L
aL1L
aL1L
aL1L
aL1L
aL3L
aL1L
aL0L
aL0L
aL0L
aL0L
aL0L
aL0L
aL0L
aL9L
aL9L
aL9L
aL9L
aL9L
aL9L
aL9L
aL9L
aL9L
aL9L
aL9L
aL9L
aL9L
aL9L
aL9L
aL9L
aL9L
aL9L
aL9L
aL9L
aa(lp62
L0L
aL0L
aL0L
aL0L
aL0L
aL0L
aL0L
aL7L
aL6L
aL6L
aL5L
aL6L
aL5L
aL5L
aL7L
aL0L
aL0L
aL0L
aL0L
aL0L
aL0L
aL0L
aL7L
aL0L
aL0L
aL0L
aL0L
aL6L
aL6L
aL6L
aL6L
aL7L
aL0L
aL7L
aL3L
aL3L
aL0L
aL1L
aL2L
aL7L
aL2L
aL2L
aL2L
aL3L
aL3L
aL3L
aL3L
aL3L
aL3L
aL3L
aL3L
aL1L
aL1L
aL3L
aL2L
aL3L
aL3L
aL0L
aL3L
aL2L
aL1L
aL3L
aL3L
aL3L
aL3L
aL3L
aL3L
aL3L
aL3L
aL3L
aL3L
aL0L
aL3L
aL3L
aL3L
aL3L
aL2L
aL3L
aL0L
aL0L
aL0L
aL0L
aL0L
aL3L
aL1L
aL0L
aL1L
aL3L
aL3L
aL1L
aL3L
aL3L
aL1L
aL2L
aL1L
aL1L
aL1L
aL1L
aL3L
aL3L
aL3L
aL3L
aL0L
aL0L
aL0L
aL9L
aL9L
aL9L
aL9L
aL9L
aL9L
aL9L
aa(lp63
L0L
aL0L
aL0L
aL0L
aL5L
aL5L
aL5L
aL5L
aL5L
aL5L
aL5L
aL5L
aL5L
aL5L
aL5L
aL5L
aL0L
aL5L
aL6L
aL3L
aL3L
aL0L
aL3L
aL0L
aL3L
aL3L
aL0L
aL3L
aL6L
aL5L
aL6L
aL3L
aL3L
aL7L
aL3L
aL0L
aL7L
aL0L
aL6L
aL3L
aL0L
aL3L
aL2L
aL3L
aL3L
aL3L
aL3L
aL2L
aL3L
aL3L
aL3L
aL3L
aL3L
aL3L
aL3L
aL2L
aL0L
aL2L
aL2L
aL2L
aL2L
aL2L
aL2L
aL2L
aL3L
aL3L
aL2L
aL3L
aL2L
aL2L
aL2L
aL2L
aL2L
aL2L
aL3L
aL2L
aL4L
aL2L
aL2L
aL2L
aL2L
aL2L
aL2L
aL2L
aL2L
aL3L
aL2L
aL3L
aL3L
aL2L
aL3L
aL3L
aL2L
aL3L
aL1L
aL2L
aL0L
aL0L
aL0L
aL0L
aL0L
aL0L
aL0L
aL9L
aL9L
aL9L
aL9L
aL9L
aL9L
aL9L
aL9L
aL9L
aa(lp64
L0L
aL0L
aL0L
aL0L
aL7L
aL6L
aL7L
aL5L
aL6L
aL5L
aL5L
aL6L
aL5L
aL5L
aL6L
aL0L
aL0L
aL0L
aL0L
aL0L
aL0L
aL0L
aL7L
aL0L
aL0L
aL5L
aL0L
aL6L
aL5L
aL0L
aL6L
aL0L
aL6L
aL0L
aL0L
aL9L
aL9L
aL9L
aL9L
aL9L
aL9L
aL9L
aL9L
aL9L
aL9L
aL9L
aL9L
aL9L
aL9L
aL9L
aL9L
aL9L
aL9L
aL9L
aL9L
aL9L
aL9L
aL9L
aL9L
aL9L
aL9L
aL9L
aL9L
aL9L
aL9L
aL9L
aL9L
aL9L
aL9L
aL9L
aL9L
aL9L
aL9L
aL9L
aL9L
aL9L
aL9L
aL9L
aL9L
aL9L
aL9L
aL9L
aL9L
aL9L
aL9L
aL9L
aL9L
aL9L
aL9L
aL9L
aL9L
aL9L
aL9L
aL9L
aL9L
aL9L
aL9L
aL9L
aL9L
aL9L
aL9L
aL9L
aL9L
aL9L
aL9L
aL9L
aL9L
aL9L
aL9L
aL9L
aL9L
aL9L
aa(lp65
L0L
aL0L
aL7L
aL5L
aL7L
aL6L
aL5L
aL6L
aL5L
aL6L
aL5L
aL5L
aL6L
aL0L
aL7L
aL0L
aL5L
aL0L
aL6L
aL5L
aL5L
aL5L
aL6L
aL6L
aL7L
aL5L
aL3L
aL7L
aL0L
aL0L
aL0L
aL0L
aL2L
aL3L
aL2L
aL1L
aL2L
aL3L
aL1L
aL2L
aL0L
aL0L
aL0L
aL3L
aL2L
aL0L
aL3L
aL2L
aL1L
aL2L
aL3L
aL2L
aL0L
aL0L
aL0L
aL0L
aL0L
aL0L
aL0L
aL0L
aL0L
aL3L
aL3L
aL3L
aL3L
aL3L
aL3L
aL1L
aL3L
aL3L
aL2L
aL3L
aL3L
aL1L
aL3L
aL3L
aL3L
aL3L
aL2L
aL3L
aL2L
aL2L
aL2L
aL2L
aL2L
aL2L
aL2L
aL3L
aL3L
aL0L
aL0L
aL9L
aL9L
aL9L
aL9L
aL9L
aL9L
aL9L
aL9L
aL9L
aL9L
aL9L
aL9L
aL9L
aL9L
aL9L
aL9L
aL9L
aL9L
aL9L
aL9L
aL9L
aa(lp66
L0L
aL0L
aL0L
aL7L
aL7L
aL7L
aL7L
aL7L
aL5L
aL6L
aL5L
aL5L
aL0L
aL0L
aL0L
aL0L
aL0L
aL0L
aL0L
aL0L
aL0L
aL0L
aL0L
aL0L
aL0L
aL0L
aL5L
aL5L
aL5L
aL3L
aL0L
aL6L
aL6L
aL6L
aL0L
aL9L
aL9L
aL9L
aL9L
aL9L
aL9L
aL9L
aL9L
aL9L
aL9L
aL9L
aL9L
aL9L
aL9L
aL9L
aL9L
aL9L
aL9L
aL9L
aL9L
aL9L
aL9L
aL9L
aL9L
aL9L
aL9L
aL9L
aL9L
aL9L
aL9L
aL9L
aL9L
aL9L
aL9L
aL9L
aL9L
aL9L
aL9L
aL9L
aL9L
aL9L
aL9L
aL9L
aL9L
aL9L
aL9L
aL9L
aL9L
aL9L
aL9L
aL9L
aL9L
aL9L
aL9L
aL9L
aL9L
aL9L
aL9L
aL9L
aL9L
aL9L
aL9L
aL9L
aL9L
aL9L
aL9L
aL9L
aL9L
aL9L
aL9L
aL9L
aL9L
aL9L
aL9L
aL9L
aL9L
aL9L
aa(lp67
L0L
aL0L
aL7L
aL7L
aL7L
aL5L
aL7L
aL6L
aL7L
aL6L
aL5L
aL6L
aL6L
aL5L
aL0L
aL0L
aL0L
aL0L
aL0L
aL6L
aL6L
aL6L
aL5L
aL5L
aL5L
aL6L
aL7L
aL0L
aL7L
aL7L
aL7L
aL7L
aL0L
aL0L
aL0L
aL3L
aL3L
aL3L
aL3L
aL3L
aL3L
aL3L
aL3L
aL3L
aL3L
aL3L
aL3L
aL2L
aL2L
aL3L
aL3L
aL7L
aL7L
aL7L
aL3L
aL3L
aL2L
aL3L
aL3L
aL3L
aL3L
aL2L
aL3L
aL3L
aL3L
aL3L
aL3L
aL3L
aL3L
aL3L
aL3L
aL3L
aL3L
aL3L
aL3L
aL3L
aL3L
aL2L
aL3L
aL3L
aL1L
aL3L
aL3L
aL3L
aL3L
aL2L
aL3L
aL1L
aL3L
aL3L
aL3L
aL0L
aL0L
aL0L
aL0L
aL0L
aL9L
aL9L
aL9L
aL9L
aL9L
aL9L
aL9L
aL9L
aL9L
aL9L
aL9L
aL9L
aL9L
aL9L
aL9L
aL9L
aa(lp68
L0L
aL0L
aL7L
aL7L
aL7L
aL5L
aL7L
aL5L
aL6L
aL6L
aL5L
aL5L
aL5L
aL6L
aL7L
aL5L
aL7L
aL5L
aL6L
aL5L
aL5L
aL6L
aL5L
aL6L
aL7L
aL6L
aL7L
aL6L
aL3L
aL3L
aL3L
aL2L
aL3L
aL0L
aL3L
aL3L
aL3L
aL0L
aL0L
aL3L
aL3L
aL0L
aL3L
aL7L
aL7L
aL2L
aL2L
aL3L
aL3L
aL1L
aL3L
aL0L
aL3L
aL0L
aL0L
aL1L
aL0L
aL0L
aL3L
aL0L
aL0L
aL0L
aL0L
aL0L
aL0L
aL0L
aL0L
aL0L
aL1L
aL0L
aL3L
aL3L
aL0L
aL3L
aL3L
aL3L
aL3L
aL3L
aL3L
aL3L
aL3L
aL1L
aL0L
aL0L
aL0L
aL0L
aL0L
aL9L
aL9L
aL9L
aL9L
aL9L
aL9L
aL9L
aL9L
aL9L
aL9L
aL9L
aL9L
aL9L
aL9L
aL9L
aL9L
aL9L
aL9L
aL9L
aL9L
aL9L
aL9L
aL9L
aL9L
aL9L
aa(lp69
L0L
aL0L
aL7L
aL6L
aL7L
aL5L
aL5L
aL6L
aL6L
aL5L
aL5L
aL6L
aL0L
aL0L
aL0L
aL0L
aL0L
aL0L
aL0L
aL0L
aL0L
aL0L
aL6L
aL0L
aL0L
aL0L
aL0L
aL6L
aL0L
aL0L
aL6L
aL6L
aL5L
aL7L
aL3L
aL7L
aL6L
aL6L
aL6L
aL6L
aL3L
aL2L
aL2L
aL2L
aL2L
aL3L
aL3L
aL2L
aL2L
aL2L
aL2L
aL1L
aL2L
aL3L
aL2L
aL2L
aL2L
aL2L
aL2L
aL1L
aL0L
aL0L
aL2L
aL3L
aL2L
aL1L
aL3L
aL3L
aL0L
aL3L
aL0L
aL1L
aL2L
aL0L
aL0L
aL0L
aL0L
aL0L
aL3L
aL0L
aL0L
aL0L
aL3L
aL3L
aL0L
aL3L
aL0L
aL0L
aL0L
aL0L
aL1L
aL3L
aL1L
aL3L
aL0L
aL0L
aL0L
aL0L
aL0L
aL0L
aL9L
aL9L
aL9L
aL9L
aL9L
aL9L
aL9L
aL9L
aL9L
aL9L
aL9L
aL9L
aa(lp70
L0L
aL0L
aL0L
aL0L
aL0L
aL0L
aL0L
aL0L
aL5L
aL7L
aL6L
aL5L
aL5L
aL6L
aL0L
aL0L
aL5L
aL0L
aL5L
aL5L
aL6L
aL5L
aL5L
aL6L
aL6L
aL6L
aL5L
aL2L
aL7L
aL9L
aL9L
aL9L
aL9L
aL9L
aL9L
aL9L
aL9L
aL9L
aL9L
aL9L
aL9L
aL9L
aL9L
aL9L
aL9L
aL9L
aL9L
aL9L
aL9L
aL9L
aL9L
aL9L
aL9L
aL9L
aL9L
aL9L
aL9L
aL9L
aL9L
aL9L
aL9L
aL9L
aL9L
aL9L
aL9L
aL9L
aL9L
aL9L
aL9L
aL9L
aL9L
aL9L
aL9L
aL9L
aL9L
aL9L
aL9L
aL9L
aL9L
aL9L
aL9L
aL9L
aL9L
aL9L
aL9L
aL9L
aL9L
aL9L
aL9L
aL9L
aL9L
aL9L
aL9L
aL9L
aL9L
aL9L
aL9L
aL9L
aL9L
aL9L
aL9L
aL9L
aL9L
aL9L
aL9L
aL9L
aL9L
aL9L
aL9L
aL9L
aL9L
aL9L
aa(lp71
L0L
aL0L
aL0L
aL0L
aL0L
aL0L
aL0L
aL7L
aL0L
aL0L
aL5L
aL0L
aL7L
aL0L
aL0L
aL0L
aL0L
aL0L
aL0L
aL0L
aL7L
aL0L
aL6L
aL5L
aL5L
aL7L
aL0L
aL0L
aL7L
aL0L
aL0L
aL0L
aL0L
aL0L
aL0L
aL0L
aL0L
aL0L
aL1L
aL3L
aL0L
aL1L
aL0L
aL0L
aL0L
aL0L
aL0L
aL0L
aL0L
aL0L
aL0L
aL0L
aL0L
aL0L
aL0L
aL0L
aL0L
aL0L
aL0L
aL0L
aL0L
aL0L
aL0L
aL0L
aL0L
aL0L
aL0L
aL0L
aL0L
aL0L
aL0L
aL0L
aL0L
aL0L
aL0L
aL0L
aL0L
aL0L
aL1L
aL1L
aL1L
aL0L
aL0L
aL0L
aL9L
aL9L
aL9L
aL9L
aL9L
aL9L
aL9L
aL9L
aL9L
aL9L
aL9L
aL9L
aL9L
aL9L
aL9L
aL9L
aL9L
aL9L
aL9L
aL9L
aL9L
aL9L
aL9L
aL9L
aL9L
aL9L
aL9L
aL9L
aa(lp72
L0L
aL0L
aL0L
aL0L
aL0L
aL0L
aL0L
aL0L
aL0L
aL0L
aL0L
aL6L
aL5L
aL5L
aL5L
aL9L
aL9L
aL9L
aL9L
aL9L
aL9L
aL9L
aL9L
aL9L
aL9L
aL9L
aL9L
aL9L
aL9L
aL9L
aL9L
aL9L
aL9L
aL9L
aL9L
aL9L
aL9L
aL9L
aL9L
aL9L
aL9L
aL9L
aL9L
aL9L
aL9L
aL9L
aL9L
aL9L
aL9L
aL9L
aL9L
aL9L
aL9L
aL9L
aL9L
aL9L
aL9L
aL9L
aL9L
aL9L
aL9L
aL9L
aL9L
aL9L
aL9L
aL9L
aL9L
aL9L
aL9L
aL9L
aL9L
aL9L
aL9L
aL9L
aL9L
aL9L
aL9L
aL9L
aL9L
aL9L
aL9L
aL9L
aL9L
aL9L
aL9L
aL9L
aL9L
aL9L
aL9L
aL9L
aL9L
aL9L
aL9L
aL9L
aL9L
aL9L
aL9L
aL9L
aL9L
aL9L
aL9L
aL9L
aL9L
aL9L
aL9L
aL9L
aL9L
aL9L
aL9L
aL9L
aL9L
aL9L
aa(lp73
L0L
aL0L
aL7L
aL7L
aL7L
aL5L
aL6L
aL5L
aL6L
aL5L
aL6L
aL6L
aL5L
aL6L
aL5L
aL5L
aL6L
aL5L
aL6L
aL7L
aL5L
aL0L
aL0L
aL0L
aL0L
aL0L
aL0L
aL0L
aL5L
aL3L
aL3L
aL0L
aL0L
aL3L
aL3L
aL2L
aL3L
aL3L
aL3L
aL3L
aL3L
aL3L
aL3L
aL1L
aL3L
aL3L
aL0L
aL3L
aL0L
aL0L
aL0L
aL0L
aL0L
aL0L
aL3L
aL1L
aL3L
aL2L
aL0L
aL3L
aL1L
aL2L
aL2L
aL2L
aL2L
aL2L
aL3L
aL3L
aL2L
aL3L
aL3L
aL3L
aL3L
aL3L
aL3L
aL1L
aL3L
aL3L
aL3L
aL3L
aL1L
aL1L
aL1L
aL3L
aL0L
aL0L
aL0L
aL9L
aL9L
aL9L
aL9L
aL9L
aL9L
aL9L
aL9L
aL9L
aL9L
aL9L
aL9L
aL9L
aL9L
aL9L
aL9L
aL9L
aL9L
aL9L
aL9L
aL9L
aL9L
aL9L
aL9L
aL9L
aa(lp74
L0L
aL0L
aL0L
aL0L
aL0L
aL0L
aL0L
aL0L
aL0L
aL0L
aL0L
aL0L
aL0L
aL0L
aL0L
aL0L
aL0L
aL0L
aL0L
aL0L
aL0L
aL6L
aL5L
aL5L
aL5L
aL5L
aL5L
aL5L
aL9L
aL9L
aL9L
aL9L
aL9L
aL9L
aL9L
aL9L
aL9L
aL9L
aL9L
aL9L
aL9L
aL9L
aL9L
aL9L
aL9L
aL9L
aL9L
aL9L
aL9L
aL9L
aL9L
aL9L
aL9L
aL9L
aL9L
aL9L
aL9L
aL9L
aL9L
aL9L
aL9L
aL9L
aL9L
aL9L
aL9L
aL9L
aL9L
aL9L
aL9L
aL9L
aL9L
aL9L
aL9L
aL9L
aL9L
aL9L
aL9L
aL9L
aL9L
aL9L
aL9L
aL9L
aL9L
aL9L
aL9L
aL9L
aL9L
aL9L
aL9L
aL9L
aL9L
aL9L
aL9L
aL9L
aL9L
aL9L
aL9L
aL9L
aL9L
aL9L
aL9L
aL9L
aL9L
aL9L
aL9L
aL9L
aL9L
aL9L
aL9L
aL9L
aL9L
aL9L
aa(lp75
L0L
aL0L
aL7L
aL0L
aL7L
aL0L
aL7L
aL7L
aL5L
aL5L
aL5L
aL5L
aL0L
aL0L
aL7L
aL0L
aL0L
aL0L
aL6L
aL7L
aL0L
aL6L
aL0L
aL0L
aL0L
aL0L
aL0L
aL0L
aL0L
aL0L
aL0L
aL0L
aL0L
aL3L
aL0L
aL3L
aL3L
aL0L
aL3L
aL3L
aL3L
aL3L
aL3L
aL1L
aL7L
aL3L
aL7L
aL3L
aL3L
aL3L
aL3L
aL7L
aL3L
aL3L
aL3L
aL3L
aL3L
aL3L
aL3L
aL3L
aL3L
aL3L
aL3L
aL3L
aL3L
aL3L
aL3L
aL3L
aL3L
aL3L
aL3L
aL3L
aL2L
aL3L
aL2L
aL2L
aL2L
aL1L
aL2L
aL3L
aL2L
aL2L
aL1L
aL2L
aL3L
aL3L
aL0L
aL0L
aL9L
aL9L
aL9L
aL9L
aL9L
aL9L
aL9L
aL9L
aL9L
aL9L
aL9L
aL9L
aL9L
aL9L
aL9L
aL9L
aL9L
aL9L
aL9L
aL9L
aL9L
aL9L
aL9L
aL9L
aa(lp76
L0L
aL0L
aL0L
aL0L
aL0L
aL0L
aL7L
aL7L
aL7L
aL6L
aL6L
aL6L
aL7L
aL7L
aL0L
aL0L
aL0L
aL0L
aL0L
aL0L
aL0L
aL0L
aL0L
aL0L
aL0L
aL0L
aL0L
aL7L
aL7L
aL7L
aL0L
aL7L
aL0L
aL7L
aL6L
aL6L
aL6L
aL6L
aL7L
aL7L
aL7L
aL7L
aL7L
aL3L
aL3L
aL3L
aL3L
aL3L
aL3L
aL3L
aL3L
aL3L
aL3L
aL0L
aL0L
aL0L
aL0L
aL0L
aL0L
aL0L
aL0L
aL3L
aL3L
aL3L
aL3L
aL3L
aL3L
aL1L
aL3L
aL3L
aL0L
aL0L
aL0L
aL0L
aL0L
aL0L
aL9L
aL9L
aL9L
aL9L
aL9L
aL9L
aL9L
aL9L
aL9L
aL9L
aL9L
aL9L
aL9L
aL9L
aL9L
aL9L
aL9L
aL9L
aL9L
aL9L
aL9L
aL9L
aL9L
aL9L
aL9L
aL9L
aL9L
aL9L
aL9L
aL9L
aL9L
aL9L
aL9L
aL9L
aL9L
aL9L
aa(lp77
L0L
aL0L
aL7L
aL7L
aL7L
aL7L
aL7L
aL7L
aL7L
aL5L
aL7L
aL5L
aL7L
aL7L
aL7L
aL0L
aL6L
aL6L
aL0L
aL6L
aL0L
aL5L
aL6L
aL5L
aL5L
aL7L
aL0L
aL7L
aL0L
aL7L
aL7L
aL0L
aL7L
aL7L
aL3L
aL3L
aL6L
aL3L
aL7L
aL6L
aL2L
aL3L
aL3L
aL3L
aL3L
aL3L
aL3L
aL3L
aL3L
aL3L
aL3L
aL7L
aL3L
aL7L
aL7L
aL1L
aL3L
aL1L
aL3L
aL3L
aL1L
aL3L
aL3L
aL3L
aL3L
aL3L
aL3L
aL3L
aL3L
aL3L
aL3L
aL0L
aL4L
aL3L
aL3L
aL3L
aL3L
aL3L
aL3L
aL3L
aL3L
aL3L
aL3L
aL3L
aL3L
aL3L
aL3L
aL3L
aL3L
aL3L
aL3L
aL3L
aL3L
aL1L
aL1L
aL1L
aL9L
aL9L
aL9L
aL9L
aL9L
aL9L
aL9L
aL9L
aL9L
aL9L
aL9L
aL9L
aL9L
aL9L
aL9L
aL9L
aa(lp78
L0L
aL0L
aL0L
aL0L
aL0L
aL0L
aL0L
aL5L
aL0L
aL0L
aL0L
aL0L
aL0L
aL0L
aL0L
aL7L
aL0L
aL7L
aL0L
aL0L
aL0L
aL0L
aL5L
aL5L
aL5L
aL5L
aL9L
aL9L
aL9L
aL9L
aL9L
aL9L
aL9L
aL9L
aL9L
aL9L
aL9L
aL9L
aL9L
aL9L
aL9L
aL9L
aL9L
aL9L
aL9L
aL9L
aL9L
aL9L
aL9L
aL9L
aL9L
aL9L
aL9L
aL9L
aL9L
aL9L
aL9L
aL9L
aL9L
aL9L
aL9L
aL9L
aL9L
aL9L
aL9L
aL9L
aL9L
aL9L
aL9L
aL9L
aL9L
aL9L
aL9L
aL9L
aL9L
aL9L
aL9L
aL9L
aL9L
aL9L
aL9L
aL9L
aL9L
aL9L
aL9L
aL9L
aL9L
aL9L
aL9L
aL9L
aL9L
aL9L
aL9L
aL9L
aL9L
aL9L
aL9L
aL9L
aL9L
aL9L
aL9L
aL9L
aL9L
aL9L
aL9L
aL9L
aL9L
aL9L
aL9L
aL9L
aL9L
aL9L
aa(lp79
L0L
aL0L
aL0L
aL0L
aL0L
aL0L
aL0L
aL0L
aL0L
aL0L
aL0L
aL0L
aL0L
aL0L
aL0L
aL0L
aL0L
aL0L
aL0L
aL0L
aL0L
aL7L
aL5L
aL0L
aL0L
aL0L
aL0L
aL7L
aL7L
aL6L
aL6L
aL7L
aL7L
aL5L
aL6L
aL5L
aL5L
aL6L
aL5L
aL5L
aL3L
aL3L
aL0L
aL3L
aL3L
aL3L
aL2L
aL3L
aL3L
aL3L
aL3L
aL1L
aL2L
aL3L
aL2L
aL1L
aL2L
aL3L
aL3L
aL1L
aL0L
aL1L
aL3L
aL3L
aL1L
aL3L
aL3L
aL2L
aL3L
aL2L
aL3L
aL3L
aL3L
aL3L
aL3L
aL3L
aL3L
aL3L
aL3L
aL3L
aL2L
aL2L
aL0L
aL2L
aL3L
aL1L
aL2L
aL3L
aL2L
aL3L
aL2L
aL2L
aL2L
aL1L
aL1L
aL1L
aL1L
aL1L
aL1L
aL1L
aL1L
aL9L
aL9L
aL9L
aL9L
aL9L
aL9L
aL9L
aL9L
aL9L
aL9L
aL9L
aa(lp80
L0L
aL0L
aL0L
aL0L
aL5L
aL5L
aL5L
aL5L
aL5L
aL7L
aL5L
aL6L
aL6L
aL5L
aL6L
aL2L
aL3L
aL0L
aL0L
aL7L
aL5L
aL7L
aL5L
aL5L
aL7L
aL5L
aL6L
aL6L
aL3L
aL0L
aL5L
aL0L
aL1L
aL2L
aL0L
aL0L
aL0L
aL0L
aL0L
aL0L
aL3L
aL0L
aL0L
aL3L
aL3L
aL3L
aL0L
aL0L
aL0L
aL0L
aL5L
aL7L
aL3L
aL3L
aL3L
aL0L
aL3L
aL2L
aL2L
aL0L
aL0L
aL0L
aL0L
aL0L
aL2L
aL0L
aL0L
aL0L
aL0L
aL0L
aL0L
aL0L
aL0L
aL0L
aL0L
aL0L
aL0L
aL3L
aL3L
aL0L
aL1L
aL3L
aL1L
aL3L
aL3L
aL1L
aL3L
aL3L
aL3L
aL3L
aL2L
aL0L
aL0L
aL1L
aL0L
aL1L
aL1L
aL0L
aL1L
aL3L
aL1L
aL2L
aL0L
aL3L
aL0L
aL0L
aL0L
aL0L
aL0L
aL0L
aL9L
aL9L
aa(lp81
L0L
aL0L
aL7L
aL0L
aL0L
aL0L
aL0L
aL7L
aL7L
aL0L
aL0L
aL0L
aL5L
aL0L
aL0L
aL0L
aL5L
aL0L
aL3L
aL0L
aL0L
aL0L
aL0L
aL3L
aL0L
aL0L
aL0L
aL0L
aL0L
aL0L
aL0L
aL0L
aL5L
aL0L
aL0L
aL0L
aL0L
aL3L
aL3L
aL0L
aL3L
aL3L
aL7L
aL3L
aL3L
aL3L
aL3L
aL3L
aL7L
aL3L
aL1L
aL3L
aL3L
aL3L
aL3L
aL3L
aL0L
aL0L
aL0L
aL0L
aL0L
aL0L
aL0L
aL0L
aL0L
aL0L
aL0L
aL3L
aL3L
aL3L
aL2L
aL3L
aL1L
aL1L
aL2L
aL3L
aL0L
aL0L
aL9L
aL9L
aL9L
aL9L
aL9L
aL9L
aL9L
aL9L
aL9L
aL9L
aL9L
aL9L
aL9L
aL9L
aL9L
aL9L
aL9L
aL9L
aL9L
aL9L
aL9L
aL9L
aL9L
aL9L
aL9L
aL9L
aL9L
aL9L
aL9L
aL9L
aL9L
aL9L
aL9L
aL9L
aa(lp82
L0L
aL0L
aL7L
aL7L
aL7L
aL5L
aL5L
aL5L
aL9L
aL9L
aL9L
aL9L
aL9L
aL9L
aL9L
aL9L
aL9L
aL9L
aL9L
aL9L
aL9L
aL9L
aL9L
aL9L
aL9L
aL9L
aL9L
aL9L
aL9L
aL9L
aL9L
aL9L
aL9L
aL9L
aL9L
aL9L
aL9L
aL9L
aL9L
aL9L
aL9L
aL9L
aL9L
aL9L
aL9L
aL9L
aL9L
aL9L
aL9L
aL9L
aL9L
aL9L
aL9L
aL9L
aL9L
aL9L
aL9L
aL9L
aL9L
aL9L
aL9L
aL9L
aL9L
aL9L
aL9L
aL9L
aL9L
aL9L
aL9L
aL9L
aL9L
aL9L
aL9L
aL9L
aL9L
aL9L
aL9L
aL9L
aL9L
aL9L
aL9L
aL9L
aL9L
aL9L
aL9L
aL9L
aL9L
aL9L
aL9L
aL9L
aL9L
aL9L
aL9L
aL9L
aL9L
aL9L
aL9L
aL9L
aL9L
aL9L
aL9L
aL9L
aL9L
aL9L
aL9L
aL9L
aL9L
aL9L
aL9L
aL9L
aL9L
aL9L
aa(lp83
L0L
aL0L
aL0L
aL0L
aL7L
aL0L
aL7L
aL6L
aL7L
aL5L
aL6L
aL5L
aL5L
aL5L
aL5L
aL0L
aL0L
aL0L
aL0L
aL0L
aL0L
aL0L
aL0L
aL0L
aL0L
aL0L
aL0L
aL0L
aL3L
aL0L
aL0L
aL0L
aL0L
aL0L
aL3L
aL0L
aL3L
aL3L
aL0L
aL0L
aL3L
aL0L
aL0L
aL0L
aL0L
aL3L
aL0L
aL0L
aL0L
aL0L
aL0L
aL0L
aL0L
aL3L
aL0L
aL0L
aL0L
aL0L
aL0L
aL3L
aL0L
aL3L
aL3L
aL2L
aL2L
aL3L
aL2L
aL2L
aL3L
aL2L
aL2L
aL1L
aL2L
aL2L
aL2L
aL0L
aL0L
aL0L
aL0L
aL9L
aL9L
aL9L
aL9L
aL9L
aL9L
aL9L
aL9L
aL9L
aL9L
aL9L
aL9L
aL9L
aL9L
aL9L
aL9L
aL9L
aL9L
aL9L
aL9L
aL9L
aL9L
aL9L
aL9L
aL9L
aL9L
aL9L
aL9L
aL9L
aL9L
aL9L
aL9L
aL9L
aa(lp84
L0L
aL0L
aL0L
aL7L
aL7L
aL7L
aL7L
aL7L
aL5L
aL7L
aL7L
aL7L
aL0L
aL0L
aL0L
aL0L
aL0L
aL0L
aL0L
aL0L
aL0L
aL0L
aL7L
aL5L
aL7L
aL5L
aL6L
aL0L
aL0L
aL7L
aL7L
aL7L
aL7L
aL5L
aL5L
aL7L
aL7L
aL0L
aL0L
aL0L
aL0L
aL0L
aL0L
aL0L
aL0L
aL0L
aL0L
aL0L
aL0L
aL0L
aL3L
aL3L
aL3L
aL0L
aL3L
aL3L
aL0L
aL3L
aL7L
aL7L
aL7L
aL7L
aL7L
aL7L
aL7L
aL0L
aL0L
aL3L
aL3L
aL3L
aL3L
aL3L
aL3L
aL3L
aL3L
aL3L
aL3L
aL3L
aL3L
aL3L
aL3L
aL3L
aL3L
aL3L
aL3L
aL2L
aL3L
aL2L
aL1L
aL7L
aL9L
aL9L
aL9L
aL9L
aL9L
aL9L
aL9L
aL9L
aL9L
aL9L
aL9L
aL9L
aL9L
aL9L
aL9L
aL9L
aL9L
aL9L
aL9L
aL9L
aL9L
aL9L
aa(lp85
L0L
aL0L
aL0L
aL0L
aL7L
aL7L
aL0L
aL5L
aL6L
aL6L
aL6L
aL6L
aL5L
aL7L
aL0L
aL0L
aL0L
aL0L
aL0L
aL0L
aL0L
aL7L
aL0L
aL7L
aL5L
aL6L
aL7L
aL5L
aL5L
aL3L
aL0L
aL0L
aL3L
aL3L
aL3L
aL3L
aL3L
aL3L
aL3L
aL3L
aL3L
aL3L
aL3L
aL3L
aL3L
aL2L
aL3L
aL2L
aL3L
aL0L
aL3L
aL0L
aL3L
aL3L
aL3L
aL2L
aL2L
aL3L
aL6L
aL2L
aL7L
aL6L
aL7L
aL7L
aL3L
aL3L
aL2L
aL3L
aL3L
aL2L
aL3L
aL2L
aL3L
aL2L
aL2L
aL3L
aL2L
aL3L
aL3L
aL3L
aL3L
aL3L
aL2L
aL3L
aL3L
aL3L
aL3L
aL3L
aL3L
aL3L
aL3L
aL3L
aL2L
aL3L
aL3L
aL3L
aL3L
aL2L
aL0L
aL0L
aL0L
aL9L
aL9L
aL9L
aL9L
aL9L
aL9L
aL9L
aL9L
aL9L
aL9L
aL9L
aa(lp86
L0L
aL0L
aL0L
aL7L
aL7L
aL5L
aL6L
aL0L
aL7L
aL5L
aL0L
aL0L
aL0L
aL0L
aL0L
aL0L
aL0L
aL0L
aL0L
aL5L
aL0L
aL5L
aL6L
aL5L
aL5L
aL0L
aL0L
aL0L
aL0L
aL0L
aL0L
aL5L
aL7L
aL0L
aL0L
aL0L
aL0L
aL0L
aL0L
aL0L
aL0L
aL0L
aL0L
aL0L
aL0L
aL0L
aL0L
aL0L
aL0L
aL0L
aL0L
aL3L
aL3L
aL3L
aL3L
aL3L
aL3L
aL0L
aL2L
aL0L
aL3L
aL3L
aL0L
aL3L
aL3L
aL3L
aL1L
aL0L
aL3L
aL0L
aL3L
aL3L
aL0L
aL2L
aL0L
aL0L
aL0L
aL0L
aL0L
aL0L
aL0L
aL0L
aL0L
aL0L
aL0L
aL0L
aL0L
aL0L
aL0L
aL3L
aL0L
aL3L
aL3L
aL0L
aL3L
aL3L
aL3L
aL0L
aL0L
aL0L
aL9L
aL9L
aL9L
aL9L
aL9L
aL9L
aL9L
aL9L
aL9L
aL9L
aL9L
aL9L
aa(lp87
L0L
aL0L
aL0L
aL0L
aL0L
aL0L
aL0L
aL0L
aL0L
aL0L
aL0L
aL0L
aL0L
aL7L
aL0L
aL0L
aL5L
aL7L
aL5L
aL5L
aL5L
aL9L
aL9L
aL9L
aL9L
aL9L
aL9L
aL9L
aL9L
aL9L
aL9L
aL9L
aL9L
aL9L
aL9L
aL9L
aL9L
aL9L
aL9L
aL9L
aL9L
aL9L
aL9L
aL9L
aL9L
aL9L
aL9L
aL9L
aL9L
aL9L
aL9L
aL9L
aL9L
aL9L
aL9L
aL9L
aL9L
aL9L
aL9L
aL9L
aL9L
aL9L
aL9L
aL9L
aL9L
aL9L
aL9L
aL9L
aL9L
aL9L
aL9L
aL9L
aL9L
aL9L
aL9L
aL9L
aL9L
aL9L
aL9L
aL9L
aL9L
aL9L
aL9L
aL9L
aL9L
aL9L
aL9L
aL9L
aL9L
aL9L
aL9L
aL9L
aL9L
aL9L
aL9L
aL9L
aL9L
aL9L
aL9L
aL9L
aL9L
aL9L
aL9L
aL9L
aL9L
aL9L
aL9L
aL9L
aL9L
aL9L
aL9L
aL9L
aa(lp88
L0L
aL0L
aL0L
aL0L
aL0L
aL7L
aL5L
aL6L
aL5L
aL5L
aL5L
aL5L
aL0L
aL0L
aL0L
aL0L
aL0L
aL0L
aL0L
aL5L
aL0L
aL7L
aL7L
aL6L
aL7L
aL0L
aL6L
aL3L
aL0L
aL0L
aL0L
aL0L
aL3L
aL0L
aL0L
aL3L
aL0L
aL0L
aL3L
aL0L
aL3L
aL3L
aL0L
aL3L
aL3L
aL3L
aL0L
aL3L
aL0L
aL0L
aL3L
aL0L
aL3L
aL3L
aL3L
aL2L
aL3L
aL2L
aL3L
aL3L
aL3L
aL3L
aL3L
aL3L
aL3L
aL3L
aL3L
aL0L
aL3L
aL3L
aL3L
aL3L
aL3L
aL3L
aL3L
aL0L
aL3L
aL3L
aL3L
aL3L
aL3L
aL3L
aL3L
aL3L
aL3L
aL3L
aL3L
aL3L
aL2L
aL2L
aL1L
aL3L
aL0L
aL0L
aL0L
aL0L
aL0L
aL0L
aL0L
aL0L
aL0L
aL0L
aL0L
aL9L
aL9L
aL9L
aL9L
aL9L
aL9L
aL9L
aL9L
aL9L
aa(lp89
L0L
aL0L
aL0L
aL0L
aL0L
aL0L
aL0L
aL0L
aL0L
aL0L
aL0L
aL7L
aL0L
aL0L
aL6L
aL6L
aL3L
aL7L
aL6L
aL6L
aL3L
aL0L
aL0L
aL0L
aL0L
aL0L
aL0L
aL3L
aL3L
aL3L
aL3L
aL3L
aL3L
aL3L
aL3L
aL3L
aL3L
aL3L
aL7L
aL7L
aL7L
aL7L
aL7L
aL0L
aL6L
aL7L
aL3L
aL3L
aL3L
aL3L
aL6L
aL6L
aL6L
aL6L
aL7L
aL6L
aL7L
aL7L
aL7L
aL7L
aL7L
aL7L
aL3L
aL3L
aL3L
aL3L
aL3L
aL3L
aL3L
aL3L
aL3L
aL2L
aL2L
aL2L
aL7L
aL3L
aL3L
aL2L
aL3L
aL2L
aL3L
aL3L
aL2L
aL3L
aL2L
aL2L
aL2L
aL2L
aL2L
aL2L
aL2L
aL3L
aL2L
aL2L
aL3L
aL0L
aL0L
aL0L
aL9L
aL9L
aL9L
aL9L
aL9L
aL9L
aL9L
aL9L
aL9L
aL9L
aL9L
aL9L
aL9L
aL9L
aa(lp90
L0L
aL0L
aL0L
aL0L
aL0L
aL0L
aL0L
aL0L
aL0L
aL0L
aL0L
aL0L
aL0L
aL0L
aL0L
aL0L
aL0L
aL0L
aL0L
aL0L
aL0L
aL0L
aL0L
aL0L
aL0L
aL0L
aL0L
aL0L
aL0L
aL0L
aL0L
aL0L
aL0L
aL0L
aL0L
aL0L
aL0L
aL0L
aL0L
aL0L
aL0L
aL0L
aL0L
aL0L
aL0L
aL0L
aL0L
aL0L
aL0L
aL7L
aL0L
aL5L
aL7L
aL7L
aL3L
aL0L
aL0L
aL1L
aL0L
aL0L
aL4L
aL0L
aL1L
aL0L
aL0L
aL1L
aL0L
aL3L
aL0L
aL0L
aL0L
aL0L
aL0L
aL0L
aL0L
aL0L
aL2L
aL0L
aL1L
aL0L
aL1L
aL1L
aL2L
aL1L
aL2L
aL1L
aL3L
aL0L
aL0L
aL9L
aL9L
aL9L
aL9L
aL9L
aL9L
aL9L
aL9L
aL9L
aL9L
aL9L
aL9L
aL9L
aL9L
aL9L
aL9L
aL9L
aL9L
aL9L
aL9L
aL9L
aL9L
aL9L
aa(lp91
L0L
aL0L
aL0L
aL0L
aL0L
aL0L
aL0L
aL0L
aL0L
aL0L
aL0L
aL0L
aL0L
aL0L
aL0L
aL0L
aL0L
aL0L
aL0L
aL0L
aL0L
aL5L
aL5L
aL5L
aL0L
aL0L
aL0L
aL0L
aL1L
aL0L
aL0L
aL0L
aL0L
aL1L
aL0L
aL0L
aL5L
aL0L
aL0L
aL3L
aL0L
aL1L
aL0L
aL0L
aL0L
aL0L
aL0L
aL0L
aL0L
aL3L
aL3L
aL1L
aL3L
aL7L
aL7L
aL6L
aL7L
aL7L
aL7L
aL3L
aL3L
aL2L
aL3L
aL2L
aL3L
aL3L
aL2L
aL3L
aL3L
aL3L
aL3L
aL1L
aL0L
aL0L
aL0L
aL3L
aL2L
aL3L
aL0L
aL2L
aL3L
aL3L
aL3L
aL3L
aL2L
aL2L
aL3L
aL1L
aL3L
aL1L
aL1L
aL1L
aL3L
aL0L
aL0L
aL0L
aL9L
aL9L
aL9L
aL9L
aL9L
aL9L
aL9L
aL9L
aL9L
aL9L
aL9L
aL9L
aL9L
aL9L
aL9L
aL9L
aa(lp92
L0L
aL0L
aL0L
aL7L
aL0L
aL0L
aL0L
aL0L
aL0L
aL0L
aL0L
aL0L
aL0L
aL0L
aL0L
aL0L
aL0L
aL0L
aL7L
aL6L
aL6L
aL0L
aL0L
aL0L
aL0L
aL0L
aL0L
aL0L
aL7L
aL5L
aL5L
aL0L
aL0L
aL0L
aL0L
aL0L
aL0L
aL0L
aL0L
aL0L
aL0L
aL0L
aL0L
aL0L
aL0L
aL0L
aL0L
aL0L
aL0L
aL3L
aL0L
aL0L
aL0L
aL0L
aL6L
aL7L
aL7L
aL6L
aL7L
aL7L
aL0L
aL0L
aL0L
aL0L
aL0L
aL0L
aL0L
aL3L
aL0L
aL0L
aL3L
aL0L
aL0L
aL0L
aL3L
aL3L
aL0L
aL3L
aL3L
aL7L
aL2L
aL3L
aL0L
aL0L
aL0L
aL0L
aL3L
aL0L
aL1L
aL0L
aL0L
aL2L
aL3L
aL2L
aL1L
aL3L
aL1L
aL1L
aL1L
aL3L
aL2L
aL0L
aL0L
aL0L
aL9L
aL9L
aL9L
aL9L
aL9L
aL9L
aL9L
aL9L
aa(lp93
L0L
aL0L
aL0L
aL0L
aL0L
aL0L
aL0L
aL6L
aL7L
aL5L
aL5L
aL0L
aL0L
aL0L
aL0L
aL0L
aL5L
aL5L
aL0L
aL5L
aL0L
aL0L
aL0L
aL6L
aL7L
aL6L
aL5L
aL0L
aL0L
aL7L
aL0L
aL0L
aL0L
aL0L
aL0L
aL0L
aL0L
aL0L
aL0L
aL3L
aL0L
aL0L
aL3L
aL0L
aL0L
aL3L
aL3L
aL3L
aL3L
aL0L
aL3L
aL3L
aL3L
aL3L
aL3L
aL3L
aL3L
aL3L
aL3L
aL0L
aL0L
aL0L
aL0L
aL3L
aL3L
aL0L
aL0L
aL3L
aL3L
aL1L
aL3L
aL3L
aL3L
aL3L
aL3L
aL3L
aL3L
aL3L
aL0L
aL1L
aL3L
aL0L
aL3L
aL0L
aL3L
aL0L
aL1L
aL0L
aL0L
aL0L
aL9L
aL9L
aL9L
aL9L
aL9L
aL9L
aL9L
aL9L
aL9L
aL9L
aL9L
aL9L
aL9L
aL9L
aL9L
aL9L
aL9L
aL9L
aL9L
aL9L
aL9L
aL9L
aa(lp94
L0L
aL0L
aL0L
aL7L
aL7L
aL0L
aL0L
aL0L
aL7L
aL7L
aL0L
aL0L
aL0L
aL0L
aL0L
aL0L
aL0L
aL0L
aL0L
aL0L
aL0L
aL0L
aL0L
aL7L
aL1L
aL0L
aL0L
aL3L
aL0L
aL1L
aL3L
aL3L
aL1L
aL7L
aL0L
aL0L
aL3L
aL0L
aL0L
aL3L
aL2L
aL0L
aL0L
aL0L
aL2L
aL3L
aL1L
aL1L
aL3L
aL1L
aL2L
aL3L
aL1L
aL0L
aL2L
aL3L
aL0L
aL3L
aL0L
aL3L
aL1L
aL2L
aL3L
aL0L
aL0L
aL2L
aL0L
aL0L
aL0L
aL0L
aL0L
aL0L
aL0L
aL9L
aL9L
aL9L
aL9L
aL9L
aL9L
aL9L
aL9L
aL9L
aL9L
aL9L
aL9L
aL9L
aL9L
aL9L
aL9L
aL9L
aL9L
aL9L
aL9L
aL9L
aL9L
aL9L
aL9L
aL9L
aL9L
aL9L
aL9L
aL9L
aL9L
aL9L
aL9L
aL9L
aL9L
aL9L
aL9L
aL9L
aL9L
aL9L
aa(lp95
L0L
aL0L
aL0L
aL0L
aL7L
aL7L
aL6L
aL7L
aL6L
aL6L
aL0L
aL7L
aL0L
aL0L
aL0L
aL0L
aL0L
aL0L
aL0L
aL6L
aL6L
aL5L
aL5L
aL5L
aL5L
aL5L
aL7L
aL6L
aL7L
aL7L
aL7L
aL0L
aL0L
aL0L
aL0L
aL0L
aL0L
aL0L
aL0L
aL3L
aL0L
aL0L
aL0L
aL3L
aL7L
aL7L
aL3L
aL3L
aL3L
aL7L
aL7L
aL7L
aL2L
aL3L
aL1L
aL3L
aL1L
aL2L
aL7L
aL1L
aL2L
aL1L
aL1L
aL2L
aL1L
aL1L
aL1L
aL3L
aL0L
aL0L
aL9L
aL9L
aL9L
aL9L
aL9L
aL9L
aL9L
aL9L
aL9L
aL9L
aL9L
aL9L
aL9L
aL9L
aL9L
aL9L
aL9L
aL9L
aL9L
aL9L
aL9L
aL9L
aL9L
aL9L
aL9L
aL9L
aL9L
aL9L
aL9L
aL9L
aL9L
aL9L
aL9L
aL9L
aL9L
aL9L
aL9L
aL9L
aL9L
aL9L
aL9L
aL9L
aa(lp96
L0L
aL0L
aL0L
aL0L
aL7L
aL7L
aL5L
aL7L
aL6L
aL7L
aL7L
aL5L
aL7L
aL0L
aL0L
aL0L
aL0L
aL0L
aL0L
aL0L
aL0L
aL0L
aL0L
aL3L
aL6L
aL7L
aL6L
aL6L
aL0L
aL6L
aL5L
aL5L
aL0L
aL3L
aL3L
aL3L
aL3L
aL0L
aL0L
aL3L
aL0L
aL3L
aL3L
aL3L
aL3L
aL3L
aL3L
aL3L
aL3L
aL3L
aL3L
aL3L
aL3L
aL2L
aL3L
aL3L
aL2L
aL3L
aL2L
aL3L
aL3L
aL2L
aL3L
aL3L
aL2L
aL3L
aL2L
aL3L
aL3L
aL3L
aL3L
aL3L
aL3L
aL3L
aL3L
aL3L
aL3L
aL3L
aL0L
aL3L
aL3L
aL3L
aL2L
aL3L
aL2L
aL1L
aL3L
aL1L
aL2L
aL2L
aL2L
aL0L
aL0L
aL0L
aL9L
aL9L
aL9L
aL9L
aL9L
aL9L
aL9L
aL9L
aL9L
aL9L
aL9L
aL9L
aL9L
aL9L
aL9L
aL9L
aL9L
aL9L
aa(lp97
L0L
aL0L
aL0L
aL0L
aL0L
aL0L
aL0L
aL0L
aL0L
aL0L
aL0L
aL0L
aL0L
aL0L
aL7L
aL7L
aL7L
aL7L
aL7L
aL0L
aL0L
aL0L
aL7L
aL7L
aL7L
aL0L
aL0L
aL0L
aL0L
aL0L
aL0L
aL0L
aL0L
aL0L
aL0L
aL0L
aL0L
aL0L
aL0L
aL0L
aL0L
aL0L
aL0L
aL0L
aL3L
aL3L
aL3L
aL2L
aL3L
aL0L
aL1L
aL1L
aL1L
aL3L
aL7L
aL1L
aL2L
aL2L
aL1L
aL0L
aL3L
aL3L
aL3L
aL3L
aL0L
aL3L
aL2L
aL2L
aL0L
aL2L
aL1L
aL0L
aL2L
aL0L
aL3L
aL2L
aL0L
aL1L
aL2L
aL2L
aL1L
aL2L
aL2L
aL1L
aL2L
aL1L
aL1L
aL0L
aL9L
aL9L
aL9L
aL9L
aL9L
aL9L
aL9L
aL9L
aL9L
aL9L
aL9L
aL9L
aL9L
aL9L
aL9L
aL9L
aL9L
aL9L
aL9L
aL9L
aL9L
aL9L
aL9L
aL9L
aa(lp98
L0L
aL0L
aL0L
aL0L
aL0L
aL0L
aL0L
aL0L
aL5L
aL5L
aL7L
aL6L
aL0L
aL5L
aL0L
aL0L
aL0L
aL0L
aL0L
aL0L
aL0L
aL0L
aL0L
aL0L
aL0L
aL0L
aL5L
aL5L
aL0L
aL0L
aL0L
aL0L
aL3L
aL5L
aL3L
aL7L
aL0L
aL0L
aL0L
aL2L
aL2L
aL0L
aL2L
aL2L
aL1L
aL2L
aL2L
aL2L
aL3L
aL2L
aL2L
aL2L
aL2L
aL2L
aL2L
aL2L
aL3L
aL2L
aL2L
aL1L
aL2L
aL3L
aL3L
aL2L
aL3L
aL2L
aL3L
aL3L
aL3L
aL3L
aL1L
aL3L
aL3L
aL2L
aL2L
aL2L
aL2L
aL2L
aL2L
aL2L
aL3L
aL2L
aL2L
aL2L
aL2L
aL2L
aL1L
aL1L
aL1L
aL9L
aL9L
aL9L
aL9L
aL9L
aL9L
aL9L
aL9L
aL9L
aL9L
aL9L
aL9L
aL9L
aL9L
aL9L
aL9L
aL9L
aL9L
aL9L
aL9L
aL9L
aL9L
aL9L
aa(lp99
L0L
aL0L
aL0L
aL6L
aL7L
aL0L
aL6L
aL5L
aL6L
aL5L
aL5L
aL0L
aL7L
aL3L
aL3L
aL0L
aL0L
aL0L
aL0L
aL0L
aL7L
aL6L
aL5L
aL5L
aL2L
aL5L
aL6L
aL7L
aL0L
aL0L
aL3L
aL3L
aL3L
aL3L
aL3L
aL3L
aL3L
aL3L
aL2L
aL0L
aL2L
aL0L
aL3L
aL0L
aL2L
aL3L
aL0L
aL2L
aL0L
aL3L
aL5L
aL0L
aL2L
aL3L
aL3L
aL3L
aL7L
aL3L
aL3L
aL7L
aL2L
aL7L
aL3L
aL3L
aL3L
aL2L
aL3L
aL3L
aL3L
aL0L
aL2L
aL3L
aL3L
aL2L
aL3L
aL3L
aL2L
aL0L
aL2L
aL3L
aL3L
aL2L
aL3L
aL1L
aL0L
aL0L
aL9L
aL9L
aL9L
aL9L
aL9L
aL9L
aL9L
aL9L
aL9L
aL9L
aL9L
aL9L
aL9L
aL9L
aL9L
aL9L
aL9L
aL9L
aL9L
aL9L
aL9L
aL9L
aL9L
aL9L
aL9L
aL9L
aa(lp100
L0L
aL0L
aL0L
aL0L
aL0L
aL0L
aL7L
aL0L
aL5L
aL0L
aL0L
aL0L
aL0L
aL0L
aL0L
aL0L
aL0L
aL0L
aL0L
aL0L
aL0L
aL0L
aL5L
aL0L
aL3L
aL7L
aL7L
aL7L
aL7L
aL7L
aL3L
aL0L
aL0L
aL0L
aL0L
aL3L
aL0L
aL3L
aL0L
aL0L
aL3L
aL0L
aL3L
aL2L
aL3L
aL3L
aL0L
aL0L
aL3L
aL3L
aL3L
aL0L
aL3L
aL4L
aL4L
aL4L
aL7L
aL7L
aL4L
aL4L
aL4L
aL4L
aL4L
aL4L
aL4L
aL4L
aL4L
aL4L
aL0L
aL4L
aL4L
aL4L
aL4L
aL4L
aL0L
aL3L
aL0L
aL3L
aL1L
aL0L
aL0L
aL0L
aL0L
aL0L
aL0L
aL2L
aL1L
aL0L
aL3L
aL0L
aL0L
aL9L
aL9L
aL9L
aL9L
aL9L
aL9L
aL9L
aL9L
aL9L
aL9L
aL9L
aL9L
aL9L
aL9L
aL9L
aL9L
aL9L
aL9L
aL9L
aL9L
aL9L
aa(lp101
L0L
aL0L
aL0L
aL0L
aL0L
aL0L
aL7L
aL7L
aL7L
aL7L
aL5L
aL6L
aL5L
aL0L
aL0L
aL0L
aL0L
aL0L
aL0L
aL0L
aL0L
aL0L
aL0L
aL0L
aL0L
aL7L
aL5L
aL7L
aL7L
aL5L
aL3L
aL0L
aL3L
aL0L
aL0L
aL0L
aL0L
aL3L
aL2L
aL0L
aL0L
aL2L
aL0L
aL3L
aL3L
aL3L
aL3L
aL2L
aL2L
aL3L
aL1L
aL3L
aL3L
aL1L
aL3L
aL1L
aL3L
aL3L
aL1L
aL3L
aL3L
aL1L
aL0L
aL0L
aL0L
aL0L
aL0L
aL4L
aL0L
aL4L
aL1L
aL0L
aL0L
aL3L
aL3L
aL0L
aL3L
aL1L
aL1L
aL3L
aL1L
aL2L
aL2L
aL2L
aL2L
aL1L
aL1L
aL1L
aL0L
aL0L
aL0L
aL9L
aL9L
aL9L
aL9L
aL9L
aL9L
aL9L
aL9L
aL9L
aL9L
aL9L
aL9L
aL9L
aL9L
aL9L
aL9L
aL9L
aL9L
aL9L
aL9L
aL9L
aa(lp102
L0L
aL0L
aL7L
aL7L
aL7L
aL7L
aL6L
aL7L
aL5L
aL5L
aL0L
aL6L
aL7L
aL7L
aL5L
aL6L
aL5L
aL6L
aL6L
aL7L
aL7L
aL5L
aL6L
aL6L
aL7L
aL7L
aL5L
aL5L
aL0L
aL5L
aL0L
aL0L
aL0L
aL3L
aL0L
aL6L
aL3L
aL5L
aL7L
aL0L
aL7L
aL6L
aL7L
aL7L
aL0L
aL0L
aL3L
aL3L
aL3L
aL6L
aL7L
aL7L
aL7L
aL3L
aL2L
aL3L
aL3L
aL3L
aL3L
aL3L
aL3L
aL3L
aL3L
aL3L
aL3L
aL3L
aL3L
aL3L
aL3L
aL3L
aL3L
aL3L
aL3L
aL3L
aL3L
aL3L
aL3L
aL3L
aL3L
aL2L
aL3L
aL3L
aL2L
aL2L
aL3L
aL3L
aL2L
aL2L
aL2L
aL2L
aL3L
aL0L
aL0L
aL9L
aL9L
aL9L
aL9L
aL9L
aL9L
aL9L
aL9L
aL9L
aL9L
aL9L
aL9L
aL9L
aL9L
aL9L
aL9L
aL9L
aL9L
aL9L
aa(lp103
L0L
aL0L
aL0L
aL0L
aL0L
aL0L
aL0L
aL0L
aL0L
aL0L
aL0L
aL0L
aL0L
aL0L
aL0L
aL0L
aL0L
aL3L
aL3L
aL1L
aL1L
aL1L
aL1L
aL0L
aL0L
aL0L
aL0L
aL0L
aL0L
aL0L
aL0L
aL0L
aL9L
aL9L
aL9L
aL9L
aL9L
aL9L
aL9L
aL9L
aL9L
aL9L
aL9L
aL9L
aL9L
aL9L
aL9L
aL9L
aL9L
aL9L
aL9L
aL9L
aL9L
aL9L
aL9L
aL9L
aL9L
aL9L
aL9L
aL9L
aL9L
aL9L
aL9L
aL9L
aL9L
aL9L
aL9L
aL9L
aL9L
aL9L
aL9L
aL9L
aL9L
aL9L
aL9L
aL9L
aL9L
aL9L
aL9L
aL9L
aL9L
aL9L
aL9L
aL9L
aL9L
aL9L
aL9L
aL9L
aL9L
aL9L
aL9L
aL9L
aL9L
aL9L
aL9L
aL9L
aL9L
aL9L
aL9L
aL9L
aL9L
aL9L
aL9L
aL9L
aL9L
aL9L
aL9L
aL9L
aL9L
aL9L
aL9L
aL9L
aa(lp104
L0L
aL0L
aL0L
aL0L
aL0L
aL0L
aL0L
aL0L
aL0L
aL0L
aL0L
aL0L
aL0L
aL0L
aL0L
aL0L
aL0L
aL7L
aL5L
aL7L
aL0L
aL0L
aL0L
aL3L
aL3L
aL0L
aL3L
aL0L
aL3L
aL1L
aL0L
aL0L
aL1L
aL0L
aL0L
aL3L
aL3L
aL3L
aL3L
aL3L
aL3L
aL3L
aL3L
aL3L
aL3L
aL3L
aL3L
aL3L
aL3L
aL3L
aL3L
aL3L
aL3L
aL2L
aL0L
aL3L
aL3L
aL3L
aL2L
aL3L
aL3L
aL2L
aL0L
aL1L
aL3L
aL0L
aL2L
aL2L
aL2L
aL2L
aL2L
aL0L
aL3L
aL0L
aL0L
aL9L
aL9L
aL9L
aL9L
aL9L
aL9L
aL9L
aL9L
aL9L
aL9L
aL9L
aL9L
aL9L
aL9L
aL9L
aL9L
aL9L
aL9L
aL9L
aL9L
aL9L
aL9L
aL9L
aL9L
aL9L
aL9L
aL9L
aL9L
aL9L
aL9L
aL9L
aL9L
aL9L
aL9L
aL9L
aL9L
aL9L
aa(lp105
L0L
aL0L
aL0L
aL0L
aL0L
aL0L
aL0L
aL0L
aL7L
aL0L
aL7L
aL7L
aL7L
aL6L
aL6L
aL6L
aL6L
aL6L
aL6L
aL5L
aL6L
aL6L
aL6L
aL6L
aL6L
aL7L
aL7L
aL7L
aL7L
aL7L
aL7L
aL0L
aL0L
aL3L
aL3L
aL3L
aL0L
aL0L
aL0L
aL0L
aL0L
aL0L
aL0L
aL1L
aL0L
aL0L
aL0L
aL0L
aL3L
aL3L
aL0L
aL3L
aL3L
aL3L
aL3L
aL3L
aL2L
aL0L
aL3L
aL3L
aL3L
aL3L
aL0L
aL3L
aL3L
aL0L
aL0L
aL0L
aL0L
aL0L
aL0L
aL0L
aL3L
aL0L
aL3L
aL0L
aL3L
aL1L
aL0L
aL2L
aL3L
aL0L
aL0L
aL0L
aL0L
aL0L
aL0L
aL0L
aL9L
aL9L
aL9L
aL9L
aL9L
aL9L
aL9L
aL9L
aL9L
aL9L
aL9L
aL9L
aL9L
aL9L
aL9L
aL9L
aL9L
aL9L
aL9L
aL9L
aL9L
aL9L
aL9L
aL9L
aa(lp106
L0L
aL0L
aL0L
aL0L
aL5L
aL0L
aL6L
aL5L
aL7L
aL5L
aL9L
aL9L
aL9L
aL9L
aL9L
aL9L
aL9L
aL9L
aL9L
aL9L
aL9L
aL9L
aL9L
aL9L
aL9L
aL9L
aL9L
aL9L
aL9L
aL9L
aL9L
aL9L
aL9L
aL9L
aL9L
aL9L
aL9L
aL9L
aL9L
aL9L
aL9L
aL9L
aL9L
aL9L
aL9L
aL9L
aL9L
aL9L
aL9L
aL9L
aL9L
aL9L
aL9L
aL9L
aL9L
aL9L
aL9L
aL9L
aL9L
aL9L
aL9L
aL9L
aL9L
aL9L
aL9L
aL9L
aL9L
aL9L
aL9L
aL9L
aL9L
aL9L
aL9L
aL9L
aL9L
aL9L
aL9L
aL9L
aL9L
aL9L
aL9L
aL9L
aL9L
aL9L
aL9L
aL9L
aL9L
aL9L
aL9L
aL9L
aL9L
aL9L
aL9L
aL9L
aL9L
aL9L
aL9L
aL9L
aL9L
aL9L
aL9L
aL9L
aL9L
aL9L
aL9L
aL9L
aL9L
aL9L
aL9L
aL9L
aL9L
aL9L
aa(lp107
L0L
aL0L
aL0L
aL0L
aL6L
aL0L
aL5L
aL5L
aL9L
aL9L
aL9L
aL9L
aL9L
aL9L
aL9L
aL9L
aL9L
aL9L
aL9L
aL9L
aL9L
aL9L
aL9L
aL9L
aL9L
aL9L
aL9L
aL9L
aL9L
aL9L
aL9L
aL9L
aL9L
aL9L
aL9L
aL9L
aL9L
aL9L
aL9L
aL9L
aL9L
aL9L
aL9L
aL9L
aL9L
aL9L
aL9L
aL9L
aL9L
aL9L
aL9L
aL9L
aL9L
aL9L
aL9L
aL9L
aL9L
aL9L
aL9L
aL9L
aL9L
aL9L
aL9L
aL9L
aL9L
aL9L
aL9L
aL9L
aL9L
aL9L
aL9L
aL9L
aL9L
aL9L
aL9L
aL9L
aL9L
aL9L
aL9L
aL9L
aL9L
aL9L
aL9L
aL9L
aL9L
aL9L
aL9L
aL9L
aL9L
aL9L
aL9L
aL9L
aL9L
aL9L
aL9L
aL9L
aL9L
aL9L
aL9L
aL9L
aL9L
aL9L
aL9L
aL9L
aL9L
aL9L
aL9L
aL9L
aL9L
aL9L
aL9L
aL9L
aa(lp108
L0L
aL0L
aL0L
aL0L
aL0L
aL0L
aL0L
aL0L
aL0L
aL0L
aL0L
aL0L
aL0L
aL0L
aL0L
aL0L
aL0L
aL0L
aL0L
aL0L
aL0L
aL0L
aL0L
aL0L
aL0L
aL0L
aL0L
aL0L
aL0L
aL5L
aL0L
aL3L
aL3L
aL3L
aL3L
aL0L
aL3L
aL0L
aL3L
aL6L
aL0L
aL0L
aL3L
aL0L
aL0L
aL3L
aL0L
aL7L
aL3L
aL1L
aL0L
aL3L
aL1L
aL3L
aL1L
aL3L
aL3L
aL1L
aL3L
aL3L
aL3L
aL0L
aL3L
aL3L
aL3L
aL3L
aL3L
aL3L
aL3L
aL3L
aL3L
aL3L
aL3L
aL3L
aL3L
aL3L
aL3L
aL3L
aL3L
aL3L
aL3L
aL3L
aL3L
aL3L
aL3L
aL3L
aL3L
aL1L
aL1L
aL0L
aL0L
aL3L
aL0L
aL9L
aL9L
aL9L
aL9L
aL9L
aL9L
aL9L
aL9L
aL9L
aL9L
aL9L
aL9L
aL9L
aL9L
aL9L
aL9L
aL9L
aL9L
aL9L
aa(lp109
L0L
aL0L
aL0L
aL0L
aL0L
aL0L
aL0L
aL0L
aL0L
aL0L
aL0L
aL0L
aL7L
aL0L
aL0L
aL5L
aL5L
aL5L
aL9L
aL9L
aL9L
aL9L
aL9L
aL9L
aL9L
aL9L
aL9L
aL9L
aL9L
aL9L
aL9L
aL9L
aL9L
aL9L
aL9L
aL9L
aL9L
aL9L
aL9L
aL9L
aL9L
aL9L
aL9L
aL9L
aL9L
aL9L
aL9L
aL9L
aL9L
aL9L
aL9L
aL9L
aL9L
aL9L
aL9L
aL9L
aL9L
aL9L
aL9L
aL9L
aL9L
aL9L
aL9L
aL9L
aL9L
aL9L
aL9L
aL9L
aL9L
aL9L
aL9L
aL9L
aL9L
aL9L
aL9L
aL9L
aL9L
aL9L
aL9L
aL9L
aL9L
aL9L
aL9L
aL9L
aL9L
aL9L
aL9L
aL9L
aL9L
aL9L
aL9L
aL9L
aL9L
aL9L
aL9L
aL9L
aL9L
aL9L
aL9L
aL9L
aL9L
aL9L
aL9L
aL9L
aL9L
aL9L
aL9L
aL9L
aL9L
aL9L
aL9L
aL9L
aa(lp110
L0L
aL0L
aL0L
aL0L
aL0L
aL0L
aL0L
aL0L
aL0L
aL0L
aL3L
aL0L
aL7L
aL0L
aL6L
aL7L
aL0L
aL0L
aL0L
aL0L
aL0L
aL0L
aL0L
aL0L
aL0L
aL0L
aL0L
aL0L
aL0L
aL0L
aL0L
aL0L
aL0L
aL7L
aL0L
aL0L
aL0L
aL0L
aL0L
aL0L
aL0L
aL0L
aL0L
aL0L
aL7L
aL3L
aL3L
aL2L
aL3L
aL2L
aL2L
aL3L
aL3L
aL3L
aL3L
aL3L
aL0L
aL3L
aL0L
aL0L
aL0L
aL3L
aL3L
aL1L
aL3L
aL3L
aL3L
aL3L
aL3L
aL3L
aL3L
aL3L
aL3L
aL3L
aL3L
aL3L
aL3L
aL1L
aL3L
aL1L
aL1L
aL1L
aL1L
aL1L
aL9L
aL9L
aL9L
aL9L
aL9L
aL9L
aL9L
aL9L
aL9L
aL9L
aL9L
aL9L
aL9L
aL9L
aL9L
aL9L
aL9L
aL9L
aL9L
aL9L
aL9L
aL9L
aL9L
aL9L
aL9L
aL9L
aL9L
aL9L
aa(lp111
L0L
aL0L
aL0L
aL0L
aL0L
aL0L
aL3L
aL0L
aL0L
aL0L
aL0L
aL7L
aL7L
aL7L
aL7L
aL5L
aL6L
aL6L
aL6L
aL6L
aL6L
aL6L
aL6L
aL6L
aL7L
aL0L
aL7L
aL0L
aL0L
aL3L
aL0L
aL0L
aL3L
aL0L
aL0L
aL0L
aL0L
aL0L
aL0L
aL0L
aL0L
aL0L
aL0L
aL0L
aL3L
aL0L
aL3L
aL3L
aL3L
aL3L
aL3L
aL3L
aL3L
aL3L
aL3L
aL3L
aL0L
aL0L
aL0L
aL0L
aL0L
aL0L
aL3L
aL0L
aL3L
aL0L
aL3L
aL0L
aL3L
aL3L
aL0L
aL0L
aL3L
aL0L
aL0L
aL0L
aL3L
aL0L
aL3L
aL0L
aL0L
aL3L
aL0L
aL3L
aL0L
aL0L
aL0L
aL9L
aL9L
aL9L
aL9L
aL9L
aL9L
aL9L
aL9L
aL9L
aL9L
aL9L
aL9L
aL9L
aL9L
aL9L
aL9L
aL9L
aL9L
aL9L
aL9L
aL9L
aL9L
aL9L
aL9L
aL9L
aa(lp112
L0L
aL0L
aL3L
aL3L
aL3L
aL0L
aL0L
aL2L
aL3L
aL3L
aL3L
aL2L
aL0L
aL0L
aL1L
aL1L
aL0L
aL0L
aL3L
aL0L
aL0L
aL3L
aL0L
aL0L
aL0L
aL0L
aL0L
aL0L
aL0L
aL0L
aL2L
aL2L
aL3L
aL1L
aL0L
aL0L
aL0L
aL0L
aL0L
aL0L
aL3L
aL0L
aL7L
aL7L
aL6L
aL6L
aL7L
aL2L
aL7L
aL7L
aL3L
aL1L
aL3L
aL1L
aL3L
aL3L
aL2L
aL3L
aL3L
aL2L
aL3L
aL1L
aL2L
aL3L
aL1L
aL1L
aL2L
aL3L
aL3L
aL2L
aL2L
aL2L
aL2L
aL2L
aL3L
aL1L
aL2L
aL3L
aL2L
aL3L
aL0L
aL0L
aL0L
aL0L
aL0L
aL9L
aL9L
aL9L
aL9L
aL9L
aL9L
aL9L
aL9L
aL9L
aL9L
aL9L
aL9L
aL9L
aL9L
aL9L
aL9L
aL9L
aL9L
aL9L
aL9L
aL9L
aL9L
aL9L
aL9L
aL9L
aL9L
aL9L
aa(lp113
L7L
aL0L
aL0L
aL7L
aL0L
aL7L
aL0L
aL7L
aL7L
aL7L
aL7L
aL5L
aL6L
aL6L
aL6L
aL7L
aL6L
aL7L
aL7L
aL6L
aL7L
aL7L
aL7L
aL7L
aL7L
aL7L
aL7L
aL7L
aL7L
aL7L
aL7L
aL0L
aL7L
aL7L
aL7L
aL6L
aL7L
aL5L
aL7L
aL6L
aL7L
aL0L
aL0L
aL7L
aL7L
aL6L
aL6L
aL7L
aL6L
aL6L
aL7L
aL6L
aL6L
aL6L
aL6L
aL6L
aL6L
aL7L
aL6L
aL6L
aL6L
aL7L
aL7L
aL6L
aL7L
aL7L
aL6L
aL7L
aL0L
aL3L
aL3L
aL3L
aL0L
aL0L
aL3L
aL7L
aL7L
aL7L
aL7L
aL7L
aL7L
aL7L
aL7L
aL3L
aL2L
aL3L
aL3L
aL3L
aL3L
aL3L
aL3L
aL3L
aL1L
aL3L
aL3L
aL3L
aL0L
aL3L
aL3L
aL3L
aL2L
aL3L
aL3L
aL0L
aL9L
aL9L
aL9L
aL9L
aL9L
aL9L
aL9L
aL9L
aa(lp114
L0L
aL0L
aL0L
aL0L
aL0L
aL7L
aL7L
aL6L
aL7L
aL6L
aL7L
aL6L
aL6L
aL7L
aL6L
aL7L
aL0L
aL0L
aL0L
aL0L
aL0L
aL0L
aL0L
aL0L
aL0L
aL7L
aL7L
aL6L
aL0L
aL0L
aL0L
aL3L
aL0L
aL3L
aL0L
aL0L
aL0L
aL0L
aL2L
aL0L
aL0L
aL0L
aL0L
aL0L
aL0L
aL0L
aL0L
aL0L
aL0L
aL0L
aL7L
aL7L
aL0L
aL3L
aL3L
aL3L
aL7L
aL5L
aL6L
aL6L
aL6L
aL3L
aL3L
aL3L
aL3L
aL3L
aL3L
aL3L
aL3L
aL3L
aL3L
aL3L
aL3L
aL3L
aL3L
aL3L
aL3L
aL3L
aL3L
aL3L
aL3L
aL3L
aL3L
aL3L
aL3L
aL3L
aL3L
aL3L
aL3L
aL3L
aL3L
aL2L
aL2L
aL3L
aL2L
aL3L
aL3L
aL0L
aL0L
aL0L
aL3L
aL3L
aL2L
aL2L
aL2L
aL2L
aL0L
aL0L
aL9L
aL9L
aL9L
aL9L
aa(lp115
L0L
aL0L
aL0L
aL0L
aL0L
aL0L
aL6L
aL6L
aL7L
aL7L
aL7L
aL5L
aL5L
aL7L
aL5L
aL0L
aL0L
aL0L
aL0L
aL0L
aL0L
aL0L
aL6L
aL0L
aL6L
aL5L
aL7L
aL0L
aL3L
aL3L
aL3L
aL3L
aL3L
aL3L
aL3L
aL3L
aL3L
aL3L
aL3L
aL3L
aL3L
aL3L
aL3L
aL3L
aL0L
aL0L
aL0L
aL0L
aL3L
aL3L
aL3L
aL3L
aL3L
aL3L
aL3L
aL3L
aL3L
aL3L
aL3L
aL0L
aL0L
aL0L
aL0L
aL3L
aL3L
aL3L
aL3L
aL3L
aL3L
aL2L
aL3L
aL3L
aL3L
aL3L
aL3L
aL3L
aL3L
aL3L
aL3L
aL3L
aL3L
aL3L
aL2L
aL2L
aL2L
aL2L
aL1L
aL2L
aL0L
aL0L
aL0L
aL0L
aL9L
aL9L
aL9L
aL9L
aL9L
aL9L
aL9L
aL9L
aL9L
aL9L
aL9L
aL9L
aL9L
aL9L
aL9L
aL9L
aL9L
aL9L
aL9L
aL9L
aa(lp116
L0L
aL0L
aL0L
aL0L
aL0L
aL0L
aL6L
aL7L
aL6L
aL6L
aL7L
aL6L
aL5L
aL5L
aL5L
aL9L
aL9L
aL9L
aL9L
aL9L
aL9L
aL9L
aL9L
aL9L
aL9L
aL9L
aL9L
aL9L
aL9L
aL9L
aL9L
aL9L
aL9L
aL9L
aL9L
aL9L
aL9L
aL9L
aL9L
aL9L
aL9L
aL9L
aL9L
aL9L
aL9L
aL9L
aL9L
aL9L
aL9L
aL9L
aL9L
aL9L
aL9L
aL9L
aL9L
aL9L
aL9L
aL9L
aL9L
aL9L
aL9L
aL9L
aL9L
aL9L
aL9L
aL9L
aL9L
aL9L
aL9L
aL9L
aL9L
aL9L
aL9L
aL9L
aL9L
aL9L
aL9L
aL9L
aL9L
aL9L
aL9L
aL9L
aL9L
aL9L
aL9L
aL9L
aL9L
aL9L
aL9L
aL9L
aL9L
aL9L
aL9L
aL9L
aL9L
aL9L
aL9L
aL9L
aL9L
aL9L
aL9L
aL9L
aL9L
aL9L
aL9L
aL9L
aL9L
aL9L
aL9L
aL9L
aL9L
aL9L
aa(lp117
L0L
aL0L
aL0L
aL0L
aL0L
aL7L
aL7L
aL7L
aL7L
aL7L
aL7L
aL6L
aL7L
aL5L
aL7L
aL0L
aL0L
aL0L
aL0L
aL0L
aL0L
aL0L
aL0L
aL0L
aL7L
aL5L
aL6L
aL5L
aL0L
aL0L
aL7L
aL5L
aL7L
aL0L
aL0L
aL0L
aL3L
aL0L
aL0L
aL0L
aL0L
aL0L
aL0L
aL0L
aL0L
aL0L
aL0L
aL3L
aL3L
aL3L
aL2L
aL3L
aL3L
aL3L
aL3L
aL3L
aL3L
aL3L
aL3L
aL3L
aL3L
aL3L
aL3L
aL3L
aL3L
aL3L
aL3L
aL3L
aL3L
aL3L
aL3L
aL3L
aL3L
aL3L
aL3L
aL3L
aL3L
aL3L
aL3L
aL3L
aL3L
aL3L
aL2L
aL3L
aL3L
aL2L
aL2L
aL2L
aL2L
aL2L
aL2L
aL3L
aL0L
aL0L
aL9L
aL9L
aL9L
aL9L
aL9L
aL9L
aL9L
aL9L
aL9L
aL9L
aL9L
aL9L
aL9L
aL9L
aL9L
aL9L
aL9L
aL9L
aa(lp118
L0L
aL0L
aL0L
aL0L
aL0L
aL0L
aL7L
aL7L
aL7L
aL6L
aL7L
aL5L
aL7L
aL7L
aL5L
aL0L
aL0L
aL0L
aL0L
aL6L
aL7L
aL7L
aL5L
aL6L
aL7L
aL7L
aL7L
aL7L
aL0L
aL0L
aL3L
aL3L
aL3L
aL3L
aL3L
aL3L
aL3L
aL3L
aL3L
aL3L
aL3L
aL0L
aL0L
aL0L
aL3L
aL3L
aL0L
aL0L
aL6L
aL3L
aL7L
aL7L
aL7L
aL7L
aL7L
aL7L
aL7L
aL7L
aL3L
aL2L
aL2L
aL3L
aL2L
aL2L
aL3L
aL3L
aL3L
aL3L
aL3L
aL3L
aL3L
aL3L
aL3L
aL3L
aL0L
aL7L
aL2L
aL2L
aL7L
aL3L
aL3L
aL2L
aL3L
aL3L
aL3L
aL3L
aL3L
aL3L
aL2L
aL3L
aL3L
aL2L
aL3L
aL2L
aL0L
aL0L
aL0L
aL9L
aL9L
aL9L
aL9L
aL9L
aL9L
aL9L
aL9L
aL9L
aL9L
aL9L
aL9L
aL9L
aL9L
aL9L
aa(lp119
L0L
aL0L
aL0L
aL0L
aL0L
aL0L
aL0L
aL0L
aL0L
aL7L
aL0L
aL0L
aL0L
aL0L
aL0L
aL0L
aL0L
aL0L
aL0L
aL0L
aL0L
aL0L
aL0L
aL5L
aL0L
aL5L
aL3L
aL0L
aL0L
aL3L
aL0L
aL3L
aL0L
aL3L
aL1L
aL0L
aL5L
aL5L
aL5L
aL9L
aL9L
aL9L
aL9L
aL9L
aL9L
aL9L
aL9L
aL9L
aL9L
aL9L
aL9L
aL9L
aL9L
aL9L
aL9L
aL9L
aL9L
aL9L
aL9L
aL9L
aL9L
aL9L
aL9L
aL9L
aL9L
aL9L
aL9L
aL9L
aL9L
aL9L
aL9L
aL9L
aL9L
aL9L
aL9L
aL9L
aL9L
aL9L
aL9L
aL9L
aL9L
aL9L
aL9L
aL9L
aL9L
aL9L
aL9L
aL9L
aL9L
aL9L
aL9L
aL9L
aL9L
aL9L
aL9L
aL9L
aL9L
aL9L
aL9L
aL9L
aL9L
aL9L
aL9L
aL9L
aL9L
aL9L
aL9L
aL9L
aL9L
aL9L
aL9L
aL9L
aa(lp120
L0L
aL0L
aL0L
aL0L
aL0L
aL0L
aL0L
aL0L
aL0L
aL0L
aL0L
aL0L
aL0L
aL0L
aL0L
aL0L
aL0L
aL0L
aL0L
aL0L
aL0L
aL0L
aL0L
aL0L
aL0L
aL0L
aL0L
aL0L
aL0L
aL0L
aL0L
aL0L
aL0L
aL0L
aL0L
aL3L
aL3L
aL3L
aL7L
aL7L
aL3L
aL0L
aL3L
aL0L
aL0L
aL0L
aL0L
aL0L
aL3L
aL0L
aL3L
aL0L
aL3L
aL0L
aL3L
aL0L
aL0L
aL2L
aL3L
aL3L
aL1L
aL2L
aL2L
aL3L
aL3L
aL3L
aL1L
aL2L
aL3L
aL3L
aL1L
aL3L
aL1L
aL2L
aL2L
aL1L
aL2L
aL2L
aL1L
aL1L
aL1L
aL3L
aL1L
aL0L
aL0L
aL0L
aL9L
aL9L
aL9L
aL9L
aL9L
aL9L
aL9L
aL9L
aL9L
aL9L
aL9L
aL9L
aL9L
aL9L
aL9L
aL9L
aL9L
aL9L
aL9L
aL9L
aL9L
aL9L
aL9L
aL9L
aL9L
aL9L
aa(lp121
L0L
aL0L
aL0L
aL0L
aL0L
aL0L
aL0L
aL0L
aL6L
aL7L
aL0L
aL0L
aL0L
aL0L
aL0L
aL0L
aL0L
aL0L
aL0L
aL0L
aL0L
aL0L
aL5L
aL7L
aL5L
aL5L
aL6L
aL7L
aL0L
aL7L
aL5L
aL7L
aL0L
aL3L
aL0L
aL0L
aL0L
aL0L
aL3L
aL5L
aL3L
aL3L
aL3L
aL0L
aL0L
aL0L
aL0L
aL7L
aL7L
aL6L
aL7L
aL6L
aL6L
aL0L
aL3L
aL7L
aL7L
aL7L
aL7L
aL1L
aL3L
aL3L
aL3L
aL1L
aL3L
aL3L
aL0L
aL3L
aL3L
aL0L
aL3L
aL0L
aL0L
aL0L
aL0L
aL0L
aL0L
aL0L
aL0L
aL0L
aL0L
aL0L
aL0L
aL0L
aL0L
aL0L
aL0L
aL0L
aL0L
aL1L
aL0L
aL1L
aL0L
aL0L
aL0L
aL0L
aL0L
aL9L
aL9L
aL9L
aL9L
aL9L
aL9L
aL9L
aL9L
aL9L
aL9L
aL9L
aL9L
aL9L
aL9L
aL9L
aa(lp122
L0L
aL0L
aL0L
aL0L
aL0L
aL0L
aL0L
aL0L
aL7L
aL5L
aL7L
aL0L
aL0L
aL0L
aL0L
aL0L
aL0L
aL0L
aL0L
aL0L
aL0L
aL0L
aL7L
aL3L
aL5L
aL3L
aL0L
aL3L
aL0L
aL3L
aL3L
aL3L
aL3L
aL3L
aL3L
aL3L
aL0L
aL3L
aL3L
aL0L
aL3L
aL0L
aL0L
aL0L
aL0L
aL3L
aL3L
aL0L
aL0L
aL0L
aL0L
aL0L
aL0L
aL0L
aL0L
aL0L
aL3L
aL0L
aL0L
aL0L
aL0L
aL0L
aL0L
aL3L
aL3L
aL0L
aL3L
aL3L
aL0L
aL3L
aL0L
aL0L
aL0L
aL0L
aL0L
aL0L
aL0L
aL3L
aL3L
aL1L
aL1L
aL1L
aL1L
aL3L
aL3L
aL0L
aL0L
aL0L
aL0L
aL0L
aL9L
aL9L
aL9L
aL9L
aL9L
aL9L
aL9L
aL9L
aL9L
aL9L
aL9L
aL9L
aL9L
aL9L
aL9L
aL9L
aL9L
aL9L
aL9L
aL9L
aL9L
aL9L
aa(lp123
L0L
aL0L
aL0L
aL0L
aL0L
aL7L
aL7L
aL7L
aL7L
aL7L
aL7L
aL5L
aL7L
aL6L
aL0L
aL0L
aL0L
aL0L
aL0L
aL7L
aL6L
aL7L
aL5L
aL5L
aL0L
aL5L
aL6L
aL6L
aL6L
aL7L
aL5L
aL7L
aL7L
aL7L
aL7L
aL5L
aL7L
aL0L
aL5L
aL0L
aL0L
aL0L
aL0L
aL0L
aL0L
aL3L
aL0L
aL0L
aL3L
aL0L
aL0L
aL3L
aL0L
aL3L
aL3L
aL3L
aL3L
aL3L
aL3L
aL7L
aL7L
aL7L
aL7L
aL0L
aL3L
aL0L
aL3L
aL0L
aL3L
aL3L
aL0L
aL0L
aL3L
aL0L
aL0L
aL3L
aL3L
aL3L
aL3L
aL3L
aL1L
aL3L
aL3L
aL3L
aL3L
aL0L
aL2L
aL0L
aL0L
aL1L
aL0L
aL2L
aL0L
aL0L
aL1L
aL0L
aL0L
aL0L
aL0L
aL0L
aL9L
aL9L
aL9L
aL9L
aL9L
aL9L
aL9L
aL9L
aL9L
aL9L
aL9L
aL9L
aa(lp124
L0L
aL0L
aL0L
aL0L
aL0L
aL0L
aL0L
aL0L
aL0L
aL0L
aL0L
aL0L
aL0L
aL0L
aL0L
aL0L
aL0L
aL0L
aL0L
aL0L
aL0L
aL0L
aL0L
aL0L
aL0L
aL0L
aL0L
aL3L
aL0L
aL3L
aL0L
aL0L
aL0L
aL0L
aL0L
aL0L
aL0L
aL3L
aL0L
aL0L
aL0L
aL0L
aL3L
aL0L
aL0L
aL3L
aL0L
aL3L
aL0L
aL0L
aL3L
aL0L
aL3L
aL3L
aL3L
aL3L
aL0L
aL3L
aL3L
aL1L
aL1L
aL0L
aL1L
aL3L
aL0L
aL3L
aL0L
aL3L
aL1L
aL4L
aL1L
aL0L
aL0L
aL3L
aL0L
aL3L
aL3L
aL0L
aL1L
aL3L
aL3L
aL1L
aL0L
aL1L
aL3L
aL3L
aL2L
aL3L
aL1L
aL1L
aL1L
aL0L
aL9L
aL9L
aL9L
aL9L
aL9L
aL9L
aL9L
aL9L
aL9L
aL9L
aL9L
aL9L
aL9L
aL9L
aL9L
aL9L
aL9L
aL9L
aL9L
aL9L
aa(lp125
L0L
aL0L
aL0L
aL0L
aL0L
aL0L
aL0L
aL0L
aL0L
aL0L
aL0L
aL0L
aL0L
aL0L
aL0L
aL0L
aL0L
aL0L
aL2L
aL0L
aL0L
aL0L
aL0L
aL0L
aL0L
aL0L
aL0L
aL0L
aL0L
aL0L
aL0L
aL0L
aL0L
aL0L
aL0L
aL0L
aL0L
aL0L
aL0L
aL0L
aL0L
aL0L
aL0L
aL0L
aL0L
aL0L
aL2L
aL2L
aL0L
aL0L
aL0L
aL7L
aL2L
aL7L
aL2L
aL0L
aL0L
aL3L
aL0L
aL2L
aL1L
aL3L
aL3L
aL0L
aL0L
aL0L
aL0L
aL0L
aL0L
aL4L
aL4L
aL0L
aL4L
aL4L
aL0L
aL4L
aL0L
aL1L
aL3L
aL2L
aL1L
aL1L
aL1L
aL1L
aL1L
aL1L
aL1L
aL1L
aL1L
aL0L
aL0L
aL0L
aL0L
aL9L
aL9L
aL9L
aL9L
aL9L
aL9L
aL9L
aL9L
aL9L
aL9L
aL9L
aL9L
aL9L
aL9L
aL9L
aL9L
aL9L
aL9L
aL9L
aa(lp126
L0L
aL0L
aL0L
aL0L
aL0L
aL7L
aL5L
aL7L
aL5L
aL5L
aL0L
aL0L
aL0L
aL0L
aL0L
aL0L
aL0L
aL0L
aL0L
aL0L
aL5L
aL6L
aL7L
aL0L
aL3L
aL3L
aL3L
aL7L
aL6L
aL3L
aL1L
aL0L
aL3L
aL3L
aL3L
aL3L
aL2L
aL3L
aL2L
aL2L
aL3L
aL2L
aL3L
aL2L
aL2L
aL2L
aL2L
aL1L
aL1L
aL2L
aL3L
aL1L
aL1L
aL4L
aL3L
aL1L
aL0L
aL0L
aL0L
aL3L
aL3L
aL0L
aL0L
aL0L
aL0L
aL0L
aL0L
aL0L
aL0L
aL0L
aL0L
aL0L
aL0L
aL3L
aL0L
aL0L
aL0L
aL0L
aL0L
aL0L
aL0L
aL0L
aL1L
aL3L
aL3L
aL0L
aL0L
aL0L
aL0L
aL0L
aL9L
aL9L
aL9L
aL9L
aL9L
aL9L
aL9L
aL9L
aL9L
aL9L
aL9L
aL9L
aL9L
aL9L
aL9L
aL9L
aL9L
aL9L
aL9L
aL9L
aL9L
aL9L
aa(lp127
L0L
aL0L
aL0L
aL7L
aL0L
aL0L
aL7L
aL0L
aL7L
aL7L
aL7L
aL7L
aL7L
aL7L
aL6L
aL7L
aL6L
aL6L
aL5L
aL6L
aL5L
aL5L
aL9L
aL9L
aL9L
aL9L
aL9L
aL9L
aL9L
aL9L
aL9L
aL9L
aL9L
aL9L
aL9L
aL9L
aL9L
aL9L
aL9L
aL9L
aL9L
aL9L
aL9L
aL9L
aL9L
aL9L
aL9L
aL9L
aL9L
aL9L
aL9L
aL9L
aL9L
aL9L
aL9L
aL9L
aL9L
aL9L
aL9L
aL9L
aL9L
aL9L
aL9L
aL9L
aL9L
aL9L
aL9L
aL9L
aL9L
aL9L
aL9L
aL9L
aL9L
aL9L
aL9L
aL9L
aL9L
aL9L
aL9L
aL9L
aL9L
aL9L
aL9L
aL9L
aL9L
aL9L
aL9L
aL9L
aL9L
aL9L
aL9L
aL9L
aL9L
aL9L
aL9L
aL9L
aL9L
aL9L
aL9L
aL9L
aL9L
aL9L
aL9L
aL9L
aL9L
aL9L
aL9L
aL9L
aL9L
aL9L
aL9L
aL9L
aa(lp128
L0L
aL0L
aL0L
aL0L
aL0L
aL0L
aL0L
aL0L
aL0L
aL6L
aL5L
aL2L
aL0L
aL3L
aL0L
aL0L
aL0L
aL0L
aL0L
aL0L
aL0L
aL3L
aL0L
aL0L
aL0L
aL0L
aL7L
aL7L
aL0L
aL0L
aL2L
aL6L
aL5L
aL1L
aL3L
aL3L
aL0L
aL2L
aL2L
aL1L
aL1L
aL0L
aL1L
aL1L
aL0L
aL1L
aL3L
aL1L
aL1L
aL1L
aL0L
aL0L
aL0L
aL0L
aL0L
aL0L
aL3L
aL0L
aL0L
aL0L
aL3L
aL3L
aL0L
aL0L
aL0L
aL0L
aL3L
aL2L
aL3L
aL0L
aL3L
aL0L
aL3L
aL3L
aL3L
aL3L
aL3L
aL0L
aL0L
aL3L
aL3L
aL3L
aL2L
aL1L
aL2L
aL1L
aL1L
aL1L
aL1L
aL0L
aL0L
aL0L
aL0L
aL9L
aL9L
aL9L
aL9L
aL9L
aL9L
aL9L
aL9L
aL9L
aL9L
aL9L
aL9L
aL9L
aL9L
aL9L
aL9L
aL9L
aL9L
aL9L
aa(lp129
L0L
aL0L
aL0L
aL0L
aL0L
aL0L
aL0L
aL0L
aL0L
aL0L
aL0L
aL7L
aL7L
aL7L
aL5L
aL5L
aL0L
aL5L
aL5L
aL0L
aL7L
aL0L
aL0L
aL3L
aL0L
aL3L
aL3L
aL0L
aL0L
aL0L
aL0L
aL0L
aL0L
aL3L
aL0L
aL7L
aL2L
aL0L
aL7L
aL7L
aL3L
aL7L
aL3L
aL7L
aL1L
aL3L
aL1L
aL2L
aL3L
aL2L
aL2L
aL3L
aL3L
aL2L
aL3L
aL3L
aL3L
aL3L
aL3L
aL3L
aL2L
aL3L
aL2L
aL3L
aL1L
aL1L
aL1L
aL1L
aL3L
aL0L
aL0L
aL1L
aL1L
aL1L
aL9L
aL9L
aL9L
aL9L
aL9L
aL9L
aL9L
aL9L
aL9L
aL9L
aL9L
aL9L
aL9L
aL9L
aL9L
aL9L
aL9L
aL9L
aL9L
aL9L
aL9L
aL9L
aL9L
aL9L
aL9L
aL9L
aL9L
aL9L
aL9L
aL9L
aL9L
aL9L
aL9L
aL9L
aL9L
aL9L
aL9L
aL9L
aa(lp130
L0L
aL0L
aL0L
aL0L
aL7L
aL7L
aL7L
aL5L
aL6L
aL7L
aL7L
aL7L
aL6L
aL6L
aL6L
aL6L
aL0L
aL6L
aL6L
aL0L
aL6L
aL6L
aL5L
aL5L
aL5L
aL5L
aL9L
aL9L
aL9L
aL9L
aL9L
aL9L
aL9L
aL9L
aL9L
aL9L
aL9L
aL9L
aL9L
aL9L
aL9L
aL9L
aL9L
aL9L
aL9L
aL9L
aL9L
aL9L
aL9L
aL9L
aL9L
aL9L
aL9L
aL9L
aL9L
aL9L
aL9L
aL9L
aL9L
aL9L
aL9L
aL9L
aL9L
aL9L
aL9L
aL9L
aL9L
aL9L
aL9L
aL9L
aL9L
aL9L
aL9L
aL9L
aL9L
aL9L
aL9L
aL9L
aL9L
aL9L
aL9L
aL9L
aL9L
aL9L
aL9L
aL9L
aL9L
aL9L
aL9L
aL9L
aL9L
aL9L
aL9L
aL9L
aL9L
aL9L
aL9L
aL9L
aL9L
aL9L
aL9L
aL9L
aL9L
aL9L
aL9L
aL9L
aL9L
aL9L
aL9L
aL9L
aL9L
aL9L
aa(lp131
L0L
aL0L
aL0L
aL7L
aL7L
aL7L
aL7L
aL6L
aL6L
aL6L
aL6L
aL6L
aL6L
aL0L
aL0L
aL0L
aL0L
aL5L
aL0L
aL5L
aL5L
aL6L
aL5L
aL5L
aL5L
aL5L
aL5L
aL5L
aL6L
aL7L
aL6L
aL0L
aL3L
aL3L
aL0L
aL3L
aL3L
aL3L
aL3L
aL3L
aL3L
aL2L
aL3L
aL3L
aL3L
aL3L
aL0L
aL0L
aL0L
aL0L
aL0L
aL0L
aL3L
aL3L
aL2L
aL3L
aL2L
aL2L
aL2L
aL2L
aL2L
aL2L
aL2L
aL2L
aL3L
aL2L
aL2L
aL1L
aL3L
aL3L
aL2L
aL3L
aL2L
aL2L
aL0L
aL0L
aL0L
aL0L
aL9L
aL9L
aL9L
aL9L
aL9L
aL9L
aL9L
aL9L
aL9L
aL9L
aL9L
aL9L
aL9L
aL9L
aL9L
aL9L
aL9L
aL9L
aL9L
aL9L
aL9L
aL9L
aL9L
aL9L
aL9L
aL9L
aL9L
aL9L
aL9L
aL9L
aL9L
aL9L
aL9L
aL9L
aa(lp132
L0L
aL7L
aL7L
aL7L
aL7L
aL7L
aL7L
aL7L
aL7L
aL7L
aL0L
aL0L
aL0L
aL0L
aL0L
aL0L
aL0L
aL0L
aL0L
aL0L
aL0L
aL0L
aL0L
aL0L
aL0L
aL0L
aL7L
aL0L
aL3L
aL7L
aL1L
aL0L
aL0L
aL0L
aL3L
aL0L
aL0L
aL3L
aL0L
aL0L
aL7L
aL6L
aL3L
aL0L
aL0L
aL0L
aL0L
aL3L
aL0L
aL0L
aL0L
aL0L
aL0L
aL0L
aL0L
aL0L
aL0L
aL0L
aL0L
aL0L
aL0L
aL0L
aL0L
aL0L
aL3L
aL0L
aL0L
aL0L
aL0L
aL3L
aL0L
aL3L
aL0L
aL0L
aL3L
aL1L
aL0L
aL0L
aL0L
aL0L
aL0L
aL0L
aL0L
aL9L
aL9L
aL9L
aL9L
aL9L
aL9L
aL9L
aL9L
aL9L
aL9L
aL9L
aL9L
aL9L
aL9L
aL9L
aL9L
aL9L
aL9L
aL9L
aL9L
aL9L
aL9L
aL9L
aL9L
aL9L
aL9L
aL9L
aL9L
aL9L
aa(lp133
L0L
aL0L
aL0L
aL7L
aL5L
aL7L
aL7L
aL7L
aL7L
aL5L
aL7L
aL7L
aL7L
aL7L
aL7L
aL0L
aL0L
aL7L
aL7L
aL7L
aL7L
aL7L
aL7L
aL7L
aL7L
aL6L
aL7L
aL6L
aL6L
aL7L
aL7L
aL7L
aL0L
aL7L
aL7L
aL0L
aL6L
aL0L
aL0L
aL7L
aL0L
aL6L
aL7L
aL6L
aL7L
aL1L
aL6L
aL7L
aL3L
aL2L
aL3L
aL2L
aL2L
aL2L
aL3L
aL3L
aL1L
aL3L
aL2L
aL3L
aL3L
aL1L
aL7L
aL2L
aL7L
aL7L
aL1L
aL2L
aL3L
aL2L
aL2L
aL1L
aL3L
aL3L
aL2L
aL3L
aL3L
aL3L
aL3L
aL1L
aL3L
aL3L
aL3L
aL3L
aL1L
aL1L
aL3L
aL2L
aL3L
aL3L
aL3L
aL3L
aL3L
aL3L
aL3L
aL1L
aL3L
aL2L
aL1L
aL1L
aL1L
aL2L
aL0L
aL0L
aL0L
aL9L
aL9L
aL9L
aL9L
aL9L
aL9L
aL9L
aa(lp134
L0L
aL0L
aL0L
aL0L
aL7L
aL7L
aL7L
aL6L
aL7L
aL5L
aL7L
aL7L
aL7L
aL0L
aL0L
aL0L
aL7L
aL6L
aL6L
aL0L
aL6L
aL6L
aL5L
aL6L
aL6L
aL6L
aL7L
aL6L
aL6L
aL5L
aL5L
aL6L
aL6L
aL6L
aL6L
aL6L
aL6L
aL6L
aL6L
aL6L
aL6L
aL3L
aL7L
aL3L
aL3L
aL3L
aL3L
aL3L
aL6L
aL2L
aL3L
aL2L
aL3L
aL3L
aL3L
aL3L
aL6L
aL3L
aL3L
aL6L
aL0L
aL3L
aL2L
aL3L
aL3L
aL3L
aL3L
aL3L
aL3L
aL3L
aL3L
aL3L
aL3L
aL3L
aL3L
aL3L
aL2L
aL3L
aL3L
aL3L
aL3L
aL3L
aL0L
aL3L
aL0L
aL0L
aL3L
aL3L
aL2L
aL2L
aL2L
aL2L
aL3L
aL3L
aL1L
aL2L
aL1L
aL0L
aL0L
aL9L
aL9L
aL9L
aL9L
aL9L
aL9L
aL9L
aL9L
aL9L
aL9L
aL9L
aL9L
aL9L
aa(lp135
L0L
aL0L
aL0L
aL0L
aL0L
aL0L
aL0L
aL0L
aL0L
aL0L
aL0L
aL0L
aL0L
aL0L
aL0L
aL0L
aL0L
aL0L
aL0L
aL0L
aL0L
aL0L
aL5L
aL0L
aL0L
aL0L
aL6L
aL5L
aL7L
aL5L
aL7L
aL1L
aL7L
aL1L
aL0L
aL2L
aL2L
aL3L
aL3L
aL2L
aL1L
aL3L
aL2L
aL3L
aL1L
aL3L
aL3L
aL1L
aL0L
aL1L
aL3L
aL3L
aL0L
aL3L
aL2L
aL3L
aL3L
aL3L
aL3L
aL3L
aL3L
aL3L
aL3L
aL3L
aL3L
aL3L
aL0L
aL3L
aL2L
aL0L
aL0L
aL0L
aL0L
aL0L
aL0L
aL3L
aL3L
aL3L
aL3L
aL3L
aL3L
aL3L
aL3L
aL3L
aL1L
aL1L
aL1L
aL3L
aL3L
aL0L
aL9L
aL9L
aL9L
aL9L
aL9L
aL9L
aL9L
aL9L
aL9L
aL9L
aL9L
aL9L
aL9L
aL9L
aL9L
aL9L
aL9L
aL9L
aL9L
aL9L
aL9L
aL9L
aa(lp136
L0L
aL0L
aL0L
aL0L
aL0L
aL0L
aL0L
aL0L
aL0L
aL6L
aL7L
aL7L
aL7L
aL7L
aL5L
aL7L
aL7L
aL6L
aL0L
aL7L
aL7L
aL0L
aL5L
aL7L
aL7L
aL5L
aL7L
aL5L
aL0L
aL0L
aL0L
aL0L
aL0L
aL0L
aL0L
aL6L
aL7L
aL5L
aL6L
aL5L
aL5L
aL0L
aL0L
aL0L
aL0L
aL0L
aL6L
aL7L
aL7L
aL7L
aL1L
aL2L
aL2L
aL2L
aL3L
aL3L
aL2L
aL3L
aL3L
aL3L
aL3L
aL3L
aL3L
aL3L
aL3L
aL3L
aL0L
aL3L
aL3L
aL0L
aL3L
aL0L
aL3L
aL2L
aL0L
aL3L
aL2L
aL2L
aL1L
aL1L
aL1L
aL1L
aL1L
aL1L
aL2L
aL2L
aL3L
aL3L
aL2L
aL1L
aL1L
aL2L
aL3L
aL0L
aL9L
aL9L
aL9L
aL9L
aL9L
aL9L
aL9L
aL9L
aL9L
aL9L
aL9L
aL9L
aL9L
aL9L
aL9L
aL9L
aL9L
aL9L
aa(lp137
L0L
aL0L
aL0L
aL0L
aL0L
aL0L
aL0L
aL0L
aL0L
aL0L
aL0L
aL0L
aL0L
aL0L
aL0L
aL0L
aL0L
aL0L
aL0L
aL0L
aL0L
aL0L
aL0L
aL0L
aL5L
aL5L
aL7L
aL5L
aL3L
aL3L
aL0L
aL7L
aL7L
aL0L
aL7L
aL0L
aL3L
aL7L
aL3L
aL3L
aL7L
aL1L
aL7L
aL3L
aL1L
aL1L
aL3L
aL0L
aL0L
aL0L
aL0L
aL0L
aL3L
aL0L
aL2L
aL2L
aL3L
aL1L
aL4L
aL4L
aL4L
aL0L
aL4L
aL4L
aL4L
aL4L
aL4L
aL3L
aL4L
aL4L
aL4L
aL0L
aL4L
aL0L
aL2L
aL1L
aL0L
aL0L
aL0L
aL0L
aL9L
aL9L
aL9L
aL9L
aL9L
aL9L
aL9L
aL9L
aL9L
aL9L
aL9L
aL9L
aL9L
aL9L
aL9L
aL9L
aL9L
aL9L
aL9L
aL9L
aL9L
aL9L
aL9L
aL9L
aL9L
aL9L
aL9L
aL9L
aL9L
aL9L
aL9L
aL9L
aa(lp138
L0L
aL0L
aL0L
aL7L
aL5L
aL7L
aL5L
aL5L
aL6L
aL5L
aL5L
aL0L
aL5L
aL0L
aL6L
aL5L
aL0L
aL7L
aL6L
aL0L
aL5L
aL5L
aL6L
aL6L
aL5L
aL5L
aL9L
aL9L
aL9L
aL9L
aL9L
aL9L
aL9L
aL9L
aL9L
aL9L
aL9L
aL9L
aL9L
aL9L
aL9L
aL9L
aL9L
aL9L
aL9L
aL9L
aL9L
aL9L
aL9L
aL9L
aL9L
aL9L
aL9L
aL9L
aL9L
aL9L
aL9L
aL9L
aL9L
aL9L
aL9L
aL9L
aL9L
aL9L
aL9L
aL9L
aL9L
aL9L
aL9L
aL9L
aL9L
aL9L
aL9L
aL9L
aL9L
aL9L
aL9L
aL9L
aL9L
aL9L
aL9L
aL9L
aL9L
aL9L
aL9L
aL9L
aL9L
aL9L
aL9L
aL9L
aL9L
aL9L
aL9L
aL9L
aL9L
aL9L
aL9L
aL9L
aL9L
aL9L
aL9L
aL9L
aL9L
aL9L
aL9L
aL9L
aL9L
aL9L
aL9L
aL9L
aL9L
aL9L
aa(lp139
L0L
aL0L
aL0L
aL0L
aL0L
aL0L
aL0L
aL0L
aL0L
aL0L
aL0L
aL0L
aL0L
aL0L
aL0L
aL7L
aL0L
aL0L
aL5L
aL7L
aL6L
aL0L
aL0L
aL0L
aL0L
aL7L
aL7L
aL3L
aL7L
aL6L
aL7L
aL0L
aL7L
aL3L
aL7L
aL3L
aL1L
aL2L
aL0L
aL0L
aL2L
aL1L
aL0L
aL3L
aL2L
aL1L
aL1L
aL2L
aL2L
aL1L
aL1L
aL1L
aL2L
aL3L
aL7L
aL3L
aL4L
aL7L
aL7L
aL7L
aL4L
aL3L
aL4L
aL4L
aL4L
aL4L
aL4L
aL4L
aL0L
aL4L
aL4L
aL3L
aL4L
aL4L
aL4L
aL4L
aL3L
aL0L
aL2L
aL3L
aL4L
aL0L
aL1L
aL0L
aL0L
aL0L
aL0L
aL1L
aL0L
aL0L
aL0L
aL0L
aL0L
aL0L
aL0L
aL0L
aL0L
aL0L
aL0L
aL0L
aL0L
aL0L
aL0L
aL0L
aL0L
aL9L
aL9L
aL9L
aL9L
aL9L
aL9L
aL9L
aa(lp140
L0L
aL0L
aL7L
aL5L
aL5L
aL6L
aL6L
aL7L
aL6L
aL7L
aL0L
aL0L
aL0L
aL0L
aL6L
aL7L
aL7L
aL6L
aL7L
aL6L
aL6L
aL5L
aL5L
aL5L
aL5L
aL7L
aL6L
aL6L
aL6L
aL7L
aL6L
aL7L
aL6L
aL3L
aL0L
aL3L
aL0L
aL3L
aL3L
aL3L
aL3L
aL6L
aL3L
aL3L
aL3L
aL5L
aL6L
aL6L
aL5L
aL6L
aL5L
aL6L
aL7L
aL3L
aL3L
aL6L
aL7L
aL7L
aL6L
aL7L
aL4L
aL3L
aL3L
aL3L
aL2L
aL3L
aL3L
aL3L
aL2L
aL3L
aL3L
aL3L
aL0L
aL3L
aL3L
aL4L
aL4L
aL4L
aL2L
aL3L
aL4L
aL4L
aL4L
aL2L
aL4L
aL4L
aL4L
aL4L
aL1L
aL2L
aL2L
aL1L
aL1L
aL1L
aL9L
aL9L
aL9L
aL9L
aL9L
aL9L
aL9L
aL9L
aL9L
aL9L
aL9L
aL9L
aL9L
aL9L
aL9L
aL9L
aL9L
aL9L
aa(lp141
L0L
aL0L
aL0L
aL7L
aL5L
aL7L
aL7L
aL5L
aL5L
aL7L
aL7L
aL7L
aL5L
aL5L
aL7L
aL5L
aL0L
aL0L
aL0L
aL0L
aL0L
aL0L
aL0L
aL0L
aL0L
aL5L
aL0L
aL5L
aL0L
aL6L
aL6L
aL6L
aL5L
aL5L
aL5L
aL6L
aL6L
aL6L
aL7L
aL6L
aL5L
aL6L
aL6L
aL5L
aL6L
aL3L
aL3L
aL3L
aL3L
aL3L
aL3L
aL0L
aL3L
aL2L
aL3L
aL2L
aL2L
aL3L
aL1L
aL2L
aL3L
aL1L
aL2L
aL1L
aL2L
aL2L
aL2L
aL0L
aL3L
aL1L
aL0L
aL3L
aL3L
aL0L
aL0L
aL0L
aL0L
aL1L
aL0L
aL0L
aL3L
aL3L
aL1L
aL0L
aL2L
aL3L
aL0L
aL3L
aL0L
aL0L
aL0L
aL0L
aL0L
aL3L
aL0L
aL1L
aL1L
aL1L
aL0L
aL0L
aL9L
aL9L
aL9L
aL9L
aL9L
aL9L
aL9L
aL9L
aL9L
aL9L
aL9L
aL9L
aa(lp142
L0L
aL0L
aL0L
aL0L
aL0L
aL0L
aL0L
aL0L
aL0L
aL0L
aL0L
aL0L
aL0L
aL5L
aL0L
aL7L
aL5L
aL6L
aL5L
aL5L
aL6L
aL6L
aL7L
aL5L
aL7L
aL7L
aL7L
aL7L
aL6L
aL7L
aL0L
aL0L
aL5L
aL7L
aL5L
aL0L
aL5L
aL6L
aL0L
aL3L
aL7L
aL3L
aL3L
aL7L
aL7L
aL7L
aL7L
aL6L
aL7L
aL6L
aL7L
aL7L
aL6L
aL2L
aL2L
aL3L
aL3L
aL3L
aL3L
aL3L
aL3L
aL1L
aL3L
aL3L
aL3L
aL3L
aL3L
aL0L
aL3L
aL3L
aL3L
aL3L
aL0L
aL3L
aL3L
aL3L
aL3L
aL3L
aL3L
aL3L
aL0L
aL3L
aL0L
aL3L
aL3L
aL3L
aL3L
aL3L
aL3L
aL2L
aL3L
aL2L
aL3L
aL3L
aL2L
aL0L
aL0L
aL0L
aL9L
aL9L
aL9L
aL9L
aL9L
aL9L
aL9L
aL9L
aL9L
aL9L
aL9L
aL9L
aL9L
aL9L
aa(lp143
L0L
aL0L
aL1L
aL7L
aL7L
aL7L
aL7L
aL6L
aL6L
aL6L
aL6L
aL6L
aL7L
aL7L
aL7L
aL0L
aL6L
aL5L
aL6L
aL0L
aL5L
aL5L
aL5L
aL6L
aL6L
aL7L
aL6L
aL5L
aL6L
aL5L
aL6L
aL6L
aL6L
aL5L
aL6L
aL5L
aL6L
aL6L
aL5L
aL6L
aL7L
aL0L
aL0L
aL7L
aL3L
aL0L
aL3L
aL3L
aL3L
aL3L
aL3L
aL3L
aL3L
aL6L
aL6L
aL0L
aL6L
aL7L
aL3L
aL1L
aL3L
aL2L
aL2L
aL3L
aL3L
aL3L
aL3L
aL3L
aL3L
aL3L
aL3L
aL3L
aL2L
aL3L
aL3L
aL3L
aL3L
aL3L
aL3L
aL3L
aL3L
aL3L
aL0L
aL0L
aL0L
aL3L
aL3L
aL0L
aL3L
aL3L
aL2L
aL1L
aL0L
aL0L
aL0L
aL0L
aL9L
aL9L
aL9L
aL9L
aL9L
aL9L
aL9L
aL9L
aL9L
aL9L
aL9L
aL9L
aL9L
aL9L
aL9L
aL9L
aa(lp144
L0L
aL0L
aL0L
aL0L
aL0L
aL0L
aL0L
aL0L
aL0L
aL0L
aL0L
aL0L
aL6L
aL5L
aL5L
aL5L
aL7L
aL5L
aL5L
aL5L
aL7L
aL7L
aL5L
aL6L
aL7L
aL7L
aL0L
aL0L
aL0L
aL0L
aL0L
aL0L
aL0L
aL0L
aL0L
aL0L
aL0L
aL0L
aL0L
aL0L
aL0L
aL0L
aL0L
aL6L
aL7L
aL5L
aL5L
aL6L
aL5L
aL6L
aL7L
aL7L
aL7L
aL7L
aL7L
aL0L
aL1L
aL3L
aL0L
aL3L
aL0L
aL3L
aL2L
aL3L
aL3L
aL0L
aL1L
aL3L
aL3L
aL1L
aL3L
aL3L
aL0L
aL0L
aL1L
aL0L
aL0L
aL0L
aL0L
aL0L
aL0L
aL0L
aL6L
aL6L
aL9L
aL9L
aL9L
aL9L
aL9L
aL9L
aL9L
aL9L
aL9L
aL9L
aL9L
aL9L
aL9L
aL9L
aL9L
aL9L
aL9L
aL9L
aL9L
aL9L
aL9L
aL9L
aL9L
aL9L
aL9L
aL9L
aL9L
aL9L
aa(lp145
L0L
aL0L
aL0L
aL0L
aL0L
aL0L
aL0L
aL0L
aL0L
aL0L
aL0L
aL0L
aL0L
aL0L
aL0L
aL0L
aL0L
aL0L
aL0L
aL0L
aL0L
aL5L
aL0L
aL0L
aL0L
aL0L
aL7L
aL7L
aL0L
aL0L
aL0L
aL5L
aL5L
aL5L
aL2L
aL1L
aL1L
aL1L
aL2L
aL2L
aL2L
aL2L
aL2L
aL1L
aL1L
aL2L
aL1L
aL1L
aL2L
aL3L
aL3L
aL3L
aL1L
aL3L
aL3L
aL3L
aL3L
aL3L
aL3L
aL3L
aL3L
aL3L
aL3L
aL3L
aL3L
aL3L
aL3L
aL3L
aL3L
aL3L
aL3L
aL2L
aL3L
aL2L
aL3L
aL3L
aL3L
aL3L
aL2L
aL1L
aL2L
aL1L
aL1L
aL2L
aL0L
aL0L
aL0L
aL0L
aL0L
aL9L
aL9L
aL9L
aL9L
aL9L
aL9L
aL9L
aL9L
aL9L
aL9L
aL9L
aL9L
aL9L
aL9L
aL9L
aL9L
aL9L
aL9L
aL9L
aL9L
aL9L
aL9L
aL9L
aa(lp146
L0L
aL0L
aL0L
aL0L
aL0L
aL7L
aL7L
aL7L
aL7L
aL5L
aL6L
aL6L
aL7L
aL5L
aL5L
aL5L
aL6L
aL5L
aL5L
aL0L
aL5L
aL5L
aL5L
aL0L
aL9L
aL9L
aL9L
aL9L
aL9L
aL9L
aL9L
aL9L
aL9L
aL9L
aL9L
aL9L
aL9L
aL9L
aL9L
aL9L
aL9L
aL9L
aL9L
aL9L
aL9L
aL9L
aL9L
aL9L
aL9L
aL9L
aL9L
aL9L
aL9L
aL9L
aL9L
aL9L
aL9L
aL9L
aL9L
aL9L
aL9L
aL9L
aL9L
aL9L
aL9L
aL9L
aL9L
aL9L
aL9L
aL9L
aL9L
aL9L
aL9L
aL9L
aL9L
aL9L
aL9L
aL9L
aL9L
aL9L
aL9L
aL9L
aL9L
aL9L
aL9L
aL9L
aL9L
aL9L
aL9L
aL9L
aL9L
aL9L
aL9L
aL9L
aL9L
aL9L
aL9L
aL9L
aL9L
aL9L
aL9L
aL9L
aL9L
aL9L
aL9L
aL9L
aL9L
aL9L
aL9L
aL9L
aL9L
aL9L
aa(lp147
L0L
aL0L
aL6L
aL6L
aL6L
aL6L
aL6L
aL5L
aL5L
aL5L
aL5L
aL5L
aL6L
aL5L
aL5L
aL6L
aL7L
aL6L
aL0L
aL6L
aL5L
aL5L
aL0L
aL6L
aL5L
aL5L
aL5L
aL0L
aL9L
aL9L
aL9L
aL9L
aL9L
aL9L
aL9L
aL9L
aL9L
aL9L
aL9L
aL9L
aL9L
aL9L
aL9L
aL9L
aL9L
aL9L
aL9L
aL9L
aL9L
aL9L
aL9L
aL9L
aL9L
aL9L
aL9L
aL9L
aL9L
aL9L
aL9L
aL9L
aL9L
aL9L
aL9L
aL9L
aL9L
aL9L
aL9L
aL9L
aL9L
aL9L
aL9L
aL9L
aL9L
aL9L
aL9L
aL9L
aL9L
aL9L
aL9L
aL9L
aL9L
aL9L
aL9L
aL9L
aL9L
aL9L
aL9L
aL9L
aL9L
aL9L
aL9L
aL9L
aL9L
aL9L
aL9L
aL9L
aL9L
aL9L
aL9L
aL9L
aL9L
aL9L
aL9L
aL9L
aL9L
aL9L
aL9L
aL9L
aL9L
aL9L
aL9L
aL9L
aa(lp148
L0L
aL0L
aL0L
aL5L
aL7L
aL7L
aL5L
aL6L
aL5L
aL5L
aL6L
aL5L
aL6L
aL7L
aL5L
aL0L
aL6L
aL7L
aL0L
aL5L
aL6L
aL6L
aL5L
aL6L
aL5L
aL7L
aL7L
aL7L
aL7L
aL7L
aL3L
aL7L
aL7L
aL3L
aL3L
aL3L
aL3L
aL7L
aL3L
aL0L
aL3L
aL3L
aL3L
aL3L
aL3L
aL0L
aL0L
aL3L
aL3L
aL7L
aL7L
aL7L
aL7L
aL2L
aL7L
aL3L
aL3L
aL3L
aL3L
aL3L
aL2L
aL3L
aL3L
aL2L
aL3L
aL3L
aL3L
aL3L
aL2L
aL3L
aL3L
aL3L
aL2L
aL3L
aL3L
aL0L
aL0L
aL3L
aL3L
aL3L
aL3L
aL2L
aL2L
aL2L
aL2L
aL1L
aL0L
aL9L
aL9L
aL9L
aL9L
aL9L
aL9L
aL9L
aL9L
aL9L
aL9L
aL9L
aL9L
aL9L
aL9L
aL9L
aL9L
aL9L
aL9L
aL9L
aL9L
aL9L
aL9L
aL9L
aL9L
aL9L
aa(lp149
L0L
aL0L
aL0L
aL0L
aL0L
aL0L
aL3L
aL3L
aL0L
aL3L
aL3L
aL0L
aL3L
aL2L
aL2L
aL3L
aL5L
aL3L
aL3L
aL0L
aL3L
aL0L
aL3L
aL3L
aL5L
aL0L
aL0L
aL3L
aL2L
aL0L
aL1L
aL3L
aL0L
aL3L
aL3L
aL3L
aL3L
aL1L
aL3L
aL1L
aL1L
aL3L
aL3L
aL3L
aL3L
aL3L
aL3L
aL3L
aL3L
aL0L
aL1L
aL0L
aL0L
aL0L
aL0L
aL0L
aL0L
aL0L
aL0L
aL0L
aL0L
aL3L
aL3L
aL3L
aL0L
aL0L
aL0L
aL0L
aL0L
aL0L
aL0L
aL0L
aL0L
aL0L
aL0L
aL0L
aL0L
aL0L
aL9L
aL9L
aL9L
aL9L
aL9L
aL9L
aL9L
aL9L
aL9L
aL9L
aL9L
aL9L
aL9L
aL9L
aL9L
aL9L
aL9L
aL9L
aL9L
aL9L
aL9L
aL9L
aL9L
aL9L
aL9L
aL9L
aL9L
aL9L
aL9L
aL9L
aL9L
aL9L
aL9L
aL9L
aa(lp150
L0L
aL0L
aL0L
aL0L
aL7L
aL0L
aL7L
aL7L
aL7L
aL7L
aL7L
aL7L
aL7L
aL6L
aL7L
aL6L
aL7L
aL6L
aL6L
aL6L
aL6L
aL6L
aL6L
aL5L
aL6L
aL6L
aL6L
aL7L
aL7L
aL7L
aL7L
aL6L
aL7L
aL7L
aL7L
aL0L
aL5L
aL0L
aL0L
aL0L
aL0L
aL0L
aL0L
aL0L
aL3L
aL3L
aL3L
aL3L
aL3L
aL7L
aL3L
aL7L
aL7L
aL7L
aL6L
aL3L
aL7L
aL7L
aL6L
aL7L
aL7L
aL3L
aL1L
aL3L
aL2L
aL2L
aL7L
aL3L
aL3L
aL3L
aL3L
aL3L
aL3L
aL0L
aL0L
aL0L
aL0L
aL0L
aL0L
aL0L
aL3L
aL0L
aL0L
aL0L
aL0L
aL0L
aL3L
aL0L
aL3L
aL3L
aL3L
aL3L
aL3L
aL3L
aL2L
aL2L
aL2L
aL1L
aL1L
aL1L
aL1L
aL1L
aL2L
aL1L
aL1L
aL9L
aL9L
aL9L
aL9L
aL9L
aL9L
aL9L
aa(lp151
L0L
aL0L
aL0L
aL7L
aL0L
aL0L
aL0L
aL7L
aL7L
aL7L
aL6L
aL7L
aL7L
aL0L
aL0L
aL0L
aL7L
aL7L
aL7L
aL7L
aL6L
aL6L
aL7L
aL5L
aL5L
aL6L
aL5L
aL6L
aL7L
aL0L
aL0L
aL7L
aL7L
aL7L
aL7L
aL2L
aL7L
aL7L
aL7L
aL7L
aL7L
aL7L
aL3L
aL3L
aL1L
aL0L
aL0L
aL0L
aL0L
aL0L
aL0L
aL0L
aL0L
aL0L
aL0L
aL0L
aL0L
aL0L
aL0L
aL0L
aL1L
aL1L
aL1L
aL1L
aL3L
aL1L
aL0L
aL0L
aL0L
aL0L
aL0L
aL0L
aL0L
aL0L
aL0L
aL0L
aL0L
aL0L
aL0L
aL1L
aL0L
aL2L
aL0L
aL0L
aL0L
aL0L
aL0L
aL3L
aL0L
aL0L
aL0L
aL0L
aL1L
aL1L
aL7L
aL9L
aL9L
aL9L
aL9L
aL9L
aL9L
aL9L
aL9L
aL9L
aL9L
aL9L
aL9L
aL9L
aL9L
aL9L
aL9L
aL9L
aa(lp152
L0L
aL0L
aL0L
aL0L
aL0L
aL0L
aL7L
aL7L
aL7L
aL5L
aL7L
aL5L
aL7L
aL7L
aL0L
aL0L
aL0L
aL0L
aL0L
aL0L
aL0L
aL0L
aL0L
aL0L
aL5L
aL0L
aL0L
aL0L
aL5L
aL5L
aL5L
aL5L
aL5L
aL5L
aL0L
aL0L
aL0L
aL7L
aL3L
aL3L
aL2L
aL3L
aL2L
aL3L
aL3L
aL1L
aL3L
aL3L
aL2L
aL3L
aL1L
aL3L
aL3L
aL1L
aL0L
aL3L
aL0L
aL0L
aL0L
aL0L
aL0L
aL2L
aL0L
aL0L
aL0L
aL0L
aL0L
aL0L
aL0L
aL0L
aL0L
aL0L
aL0L
aL0L
aL0L
aL0L
aL0L
aL0L
aL0L
aL2L
aL0L
aL0L
aL0L
aL0L
aL0L
aL0L
aL9L
aL9L
aL9L
aL9L
aL9L
aL9L
aL9L
aL9L
aL9L
aL9L
aL9L
aL9L
aL9L
aL9L
aL9L
aL9L
aL9L
aL9L
aL9L
aL9L
aL9L
aL9L
aL9L
aL9L
aL9L
aL9L
aa(lp153
L0L
aL0L
aL0L
aL0L
aL0L
aL0L
aL6L
aL7L
aL6L
aL5L
aL5L
aL5L
aL5L
aL5L
aL5L
aL0L
aL0L
aL0L
aL0L
aL0L
aL7L
aL7L
aL0L
aL6L
aL7L
aL7L
aL5L
aL0L
aL7L
aL0L
aL0L
aL0L
aL3L
aL0L
aL0L
aL0L
aL0L
aL0L
aL0L
aL3L
aL0L
aL3L
aL3L
aL3L
aL0L
aL3L
aL0L
aL0L
aL3L
aL3L
aL2L
aL3L
aL0L
aL3L
aL0L
aL3L
aL3L
aL3L
aL3L
aL1L
aL3L
aL3L
aL3L
aL3L
aL3L
aL3L
aL0L
aL3L
aL0L
aL0L
aL3L
aL0L
aL2L
aL0L
aL0L
aL1L
aL0L
aL2L
aL0L
aL0L
aL3L
aL0L
aL0L
aL1L
aL3L
aL3L
aL3L
aL0L
aL1L
aL0L
aL3L
aL1L
aL0L
aL1L
aL3L
aL0L
aL3L
aL3L
aL3L
aL2L
aL0L
aL3L
aL0L
aL0L
aL9L
aL9L
aL9L
aL9L
aL9L
aL9L
aL9L
aL9L
aa(lp154
L0L
aL0L
aL0L
aL0L
aL0L
aL5L
aL7L
aL6L
aL6L
aL6L
aL5L
aL7L
aL5L
aL5L
aL5L
aL5L
aL0L
aL5L
aL5L
aL6L
aL5L
aL7L
aL5L
aL5L
aL7L
aL6L
aL0L
aL6L
aL0L
aL0L
aL0L
aL0L
aL3L
aL5L
aL5L
aL5L
aL9L
aL9L
aL9L
aL9L
aL9L
aL9L
aL9L
aL9L
aL9L
aL9L
aL9L
aL9L
aL9L
aL9L
aL9L
aL9L
aL9L
aL9L
aL9L
aL9L
aL9L
aL9L
aL9L
aL9L
aL9L
aL9L
aL9L
aL9L
aL9L
aL9L
aL9L
aL9L
aL9L
aL9L
aL9L
aL9L
aL9L
aL9L
aL9L
aL9L
aL9L
aL9L
aL9L
aL9L
aL9L
aL9L
aL9L
aL9L
aL9L
aL9L
aL9L
aL9L
aL9L
aL9L
aL9L
aL9L
aL9L
aL9L
aL9L
aL9L
aL9L
aL9L
aL9L
aL9L
aL9L
aL9L
aL9L
aL9L
aL9L
aL9L
aL9L
aL9L
aL9L
aL9L
aL9L
aL9L
aa(lp155
L0L
aL0L
aL0L
aL0L
aL0L
aL0L
aL0L
aL0L
aL0L
aL0L
aL0L
aL0L
aL0L
aL0L
aL7L
aL0L
aL0L
aL3L
aL3L
aL0L
aL0L
aL0L
aL0L
aL3L
aL0L
aL3L
aL0L
aL3L
aL3L
aL0L
aL3L
aL3L
aL3L
aL3L
aL3L
aL3L
aL0L
aL0L
aL0L
aL3L
aL0L
aL3L
aL3L
aL3L
aL3L
aL7L
aL3L
aL2L
aL3L
aL3L
aL0L
aL0L
aL0L
aL3L
aL3L
aL0L
aL3L
aL3L
aL0L
aL3L
aL3L
aL3L
aL3L
aL0L
aL3L
aL3L
aL0L
aL0L
aL0L
aL0L
aL0L
aL0L
aL0L
aL0L
aL0L
aL0L
aL0L
aL0L
aL0L
aL0L
aL0L
aL0L
aL3L
aL0L
aL3L
aL3L
aL3L
aL3L
aL0L
aL0L
aL0L
aL0L
aL9L
aL9L
aL9L
aL9L
aL9L
aL9L
aL9L
aL9L
aL9L
aL9L
aL9L
aL9L
aL9L
aL9L
aL9L
aL9L
aL9L
aL9L
aL9L
aL9L
aa(lp156
L0L
aL0L
aL0L
aL7L
aL7L
aL7L
aL7L
aL5L
aL5L
aL6L
aL0L
aL0L
aL0L
aL0L
aL0L
aL0L
aL5L
aL5L
aL5L
aL5L
aL6L
aL6L
aL7L
aL7L
aL6L
aL6L
aL7L
aL6L
aL5L
aL5L
aL6L
aL0L
aL0L
aL0L
aL6L
aL7L
aL0L
aL3L
aL3L
aL3L
aL3L
aL7L
aL6L
aL7L
aL6L
aL6L
aL7L
aL6L
aL6L
aL7L
aL6L
aL2L
aL7L
aL6L
aL3L
aL7L
aL3L
aL3L
aL1L
aL3L
aL1L
aL3L
aL3L
aL2L
aL3L
aL3L
aL3L
aL3L
aL3L
aL3L
aL3L
aL3L
aL0L
aL0L
aL3L
aL1L
aL1L
aL3L
aL2L
aL3L
aL3L
aL2L
aL3L
aL2L
aL1L
aL2L
aL3L
aL1L
aL3L
aL3L
aL3L
aL3L
aL0L
aL0L
aL0L
aL0L
aL9L
aL9L
aL9L
aL9L
aL9L
aL9L
aL9L
aL9L
aL9L
aL9L
aL9L
aL9L
aL9L
aL9L
aL9L
aL9L
aa(lp157
L0L
aL7L
aL7L
aL7L
aL6L
aL5L
aL7L
aL6L
aL5L
aL6L
aL6L
aL5L
aL5L
aL6L
aL6L
aL6L
aL6L
aL5L
aL0L
aL0L
aL0L
aL5L
aL7L
aL0L
aL6L
aL6L
aL5L
aL6L
aL0L
aL7L
aL7L
aL7L
aL7L
aL7L
aL7L
aL6L
aL6L
aL7L
aL0L
aL3L
aL0L
aL7L
aL0L
aL0L
aL0L
aL0L
aL0L
aL0L
aL0L
aL0L
aL0L
aL7L
aL0L
aL0L
aL0L
aL0L
aL6L
aL7L
aL6L
aL6L
aL6L
aL7L
aL7L
aL7L
aL3L
aL7L
aL0L
aL0L
aL0L
aL0L
aL3L
aL3L
aL3L
aL2L
aL3L
aL4L
aL4L
aL4L
aL0L
aL0L
aL7L
aL2L
aL1L
aL4L
aL4L
aL4L
aL4L
aL4L
aL2L
aL2L
aL2L
aL2L
aL1L
aL1L
aL1L
aL1L
aL1L
aL9L
aL9L
aL9L
aL9L
aL9L
aL9L
aL9L
aL9L
aL9L
aL9L
aL9L
aL9L
aL9L
aL9L
aL9L
aa(lp158
L0L
aL0L
aL0L
aL5L
aL7L
aL5L
aL5L
aL5L
aL5L
aL5L
aL5L
aL5L
aL0L
aL0L
aL0L
aL0L
aL0L
aL0L
aL0L
aL5L
aL0L
aL0L
aL6L
aL0L
aL5L
aL5L
aL3L
aL5L
aL5L
aL5L
aL9L
aL9L
aL9L
aL9L
aL9L
aL9L
aL9L
aL9L
aL9L
aL9L
aL9L
aL9L
aL9L
aL9L
aL9L
aL9L
aL9L
aL9L
aL9L
aL9L
aL9L
aL9L
aL9L
aL9L
aL9L
aL9L
aL9L
aL9L
aL9L
aL9L
aL9L
aL9L
aL9L
aL9L
aL9L
aL9L
aL9L
aL9L
aL9L
aL9L
aL9L
aL9L
aL9L
aL9L
aL9L
aL9L
aL9L
aL9L
aL9L
aL9L
aL9L
aL9L
aL9L
aL9L
aL9L
aL9L
aL9L
aL9L
aL9L
aL9L
aL9L
aL9L
aL9L
aL9L
aL9L
aL9L
aL9L
aL9L
aL9L
aL9L
aL9L
aL9L
aL9L
aL9L
aL9L
aL9L
aL9L
aL9L
aL9L
aL9L
aL9L
aL9L
aa(lp159
L0L
aL5L
aL7L
aL0L
aL0L
aL0L
aL0L
aL0L
aL6L
aL5L
aL6L
aL5L
aL5L
aL5L
aL5L
aL6L
aL6L
aL5L
aL7L
aL7L
aL6L
aL5L
aL6L
aL0L
aL0L
aL0L
aL0L
aL0L
aL3L
aL0L
aL0L
aL2L
aL2L
aL3L
aL7L
aL7L
aL5L
aL5L
aL7L
aL3L
aL2L
aL2L
aL3L
aL1L
aL2L
aL3L
aL3L
aL3L
aL3L
aL3L
aL3L
aL3L
aL3L
aL3L
aL3L
aL3L
aL3L
aL3L
aL3L
aL3L
aL3L
aL3L
aL3L
aL3L
aL3L
aL3L
aL3L
aL2L
aL3L
aL2L
aL1L
aL2L
aL2L
aL1L
aL2L
aL0L
aL9L
aL9L
aL9L
aL9L
aL9L
aL9L
aL9L
aL9L
aL9L
aL9L
aL9L
aL9L
aL9L
aL9L
aL9L
aL9L
aL9L
aL9L
aL9L
aL9L
aL9L
aL9L
aL9L
aL9L
aL9L
aL9L
aL9L
aL9L
aL9L
aL9L
aL9L
aL9L
aL9L
aL9L
aL9L
aL9L
aa(lp160
L0L
aL0L
aL0L
aL0L
aL0L
aL0L
aL0L
aL0L
aL5L
aL6L
aL5L
aL5L
aL0L
aL7L
aL0L
aL0L
aL0L
aL5L
aL0L
aL0L
aL0L
aL0L
aL5L
aL5L
aL5L
aL3L
aL3L
aL3L
aL3L
aL0L
aL1L
aL3L
aL3L
aL0L
aL3L
aL3L
aL3L
aL3L
aL3L
aL1L
aL3L
aL3L
aL3L
aL3L
aL3L
aL3L
aL3L
aL3L
aL3L
aL3L
aL3L
aL3L
aL3L
aL3L
aL3L
aL3L
aL3L
aL3L
aL3L
aL3L
aL3L
aL3L
aL3L
aL3L
aL3L
aL3L
aL3L
aL3L
aL3L
aL3L
aL2L
aL0L
aL0L
aL0L
aL0L
aL3L
aL3L
aL3L
aL0L
aL0L
aL0L
aL0L
aL0L
aL0L
aL0L
aL0L
aL0L
aL0L
aL0L
aL0L
aL0L
aL0L
aL9L
aL9L
aL9L
aL9L
aL9L
aL9L
aL9L
aL9L
aL9L
aL9L
aL9L
aL9L
aL9L
aL9L
aL9L
aL9L
aL9L
aL9L
aL9L
aL9L
aa(lp161
L0L
aL0L
aL5L
aL7L
aL6L
aL6L
aL5L
aL6L
aL5L
aL5L
aL6L
aL5L
aL5L
aL5L
aL5L
aL5L
aL5L
aL7L
aL5L
aL6L
aL6L
aL5L
aL5L
aL5L
aL0L
aL0L
aL0L
aL0L
aL0L
aL0L
aL0L
aL0L
aL0L
aL0L
aL7L
aL6L
aL5L
aL6L
aL6L
aL0L
aL0L
aL7L
aL3L
aL7L
aL7L
aL3L
aL3L
aL3L
aL3L
aL3L
aL3L
aL3L
aL3L
aL3L
aL0L
aL0L
aL0L
aL0L
aL0L
aL0L
aL0L
aL0L
aL0L
aL3L
aL3L
aL0L
aL0L
aL0L
aL0L
aL0L
aL0L
aL0L
aL3L
aL3L
aL3L
aL3L
aL3L
aL3L
aL3L
aL3L
aL3L
aL3L
aL3L
aL2L
aL3L
aL3L
aL0L
aL0L
aL0L
aL0L
aL9L
aL9L
aL9L
aL9L
aL9L
aL9L
aL9L
aL9L
aL9L
aL9L
aL9L
aL9L
aL9L
aL9L
aL9L
aL9L
aL9L
aL9L
aL9L
aL9L
aL9L
aL9L
aa(lp162
L0L
aL0L
aL0L
aL0L
aL0L
aL7L
aL7L
aL5L
aL5L
aL5L
aL6L
aL5L
aL6L
aL5L
aL0L
aL0L
aL0L
aL0L
aL7L
aL0L
aL7L
aL5L
aL5L
aL5L
aL5L
aL5L
aL5L
aL5L
aL5L
aL3L
aL3L
aL3L
aL3L
aL3L
aL3L
aL3L
aL3L
aL3L
aL0L
aL0L
aL2L
aL3L
aL2L
aL3L
aL3L
aL2L
aL2L
aL3L
aL3L
aL2L
aL3L
aL3L
aL3L
aL3L
aL3L
aL3L
aL3L
aL3L
aL3L
aL1L
aL3L
aL1L
aL3L
aL1L
aL3L
aL3L
aL3L
aL0L
aL3L
aL1L
aL3L
aL0L
aL3L
aL2L
aL3L
aL0L
aL3L
aL3L
aL0L
aL0L
aL3L
aL1L
aL0L
aL0L
aL0L
aL0L
aL0L
aL3L
aL0L
aL0L
aL0L
aL0L
aL2L
aL0L
aL0L
aL0L
aL0L
aL0L
aL0L
aL0L
aL0L
aL9L
aL9L
aL9L
aL9L
aL9L
aL9L
aL9L
aL9L
aL9L
aL9L
aL9L
aa(lp163
L0L
aL0L
aL0L
aL7L
aL0L
aL0L
aL7L
aL7L
aL5L
aL6L
aL5L
aL5L
aL5L
aL7L
aL5L
aL6L
aL0L
aL7L
aL0L
aL5L
aL5L
aL5L
aL6L
aL5L
aL5L
aL6L
aL0L
aL7L
aL7L
aL7L
aL7L
aL0L
aL0L
aL0L
aL0L
aL3L
aL0L
aL0L
aL0L
aL0L
aL0L
aL0L
aL3L
aL3L
aL0L
aL0L
aL7L
aL0L
aL7L
aL3L
aL3L
aL7L
aL3L
aL0L
aL7L
aL2L
aL2L
aL3L
aL3L
aL3L
aL3L
aL3L
aL2L
aL3L
aL3L
aL3L
aL3L
aL3L
aL3L
aL3L
aL3L
aL3L
aL3L
aL2L
aL3L
aL3L
aL0L
aL3L
aL3L
aL3L
aL3L
aL3L
aL3L
aL3L
aL3L
aL3L
aL3L
aL3L
aL3L
aL3L
aL3L
aL3L
aL0L
aL0L
aL9L
aL9L
aL9L
aL9L
aL9L
aL9L
aL9L
aL9L
aL9L
aL9L
aL9L
aL9L
aL9L
aL9L
aL9L
aL9L
aL9L
aL9L
aa(lp164
L0L
aL0L
aL7L
aL7L
aL6L
aL5L
aL6L
aL5L
aL6L
aL6L
aL0L
aL0L
aL6L
aL0L
aL0L
aL5L
aL6L
aL0L
aL0L
aL6L
aL6L
aL0L
aL0L
aL6L
aL5L
aL6L
aL7L
aL6L
aL0L
aL6L
aL5L
aL6L
aL6L
aL0L
aL0L
aL0L
aL3L
aL0L
aL0L
aL0L
aL0L
aL0L
aL0L
aL0L
aL0L
aL3L
aL0L
aL0L
aL3L
aL0L
aL7L
aL0L
aL2L
aL2L
aL7L
aL3L
aL3L
aL3L
aL3L
aL3L
aL3L
aL3L
aL3L
aL3L
aL2L
aL2L
aL2L
aL3L
aL3L
aL2L
aL3L
aL1L
aL3L
aL2L
aL2L
aL2L
aL3L
aL2L
aL0L
aL3L
aL3L
aL1L
aL1L
aL9L
aL9L
aL9L
aL9L
aL9L
aL9L
aL9L
aL9L
aL9L
aL9L
aL9L
aL9L
aL9L
aL9L
aL9L
aL9L
aL9L
aL9L
aL9L
aL9L
aL9L
aL9L
aL9L
aL9L
aL9L
aL9L
aL9L
aL9L
aL9L
aa(lp165
L0L
aL0L
aL0L
aL0L
aL7L
aL7L
aL7L
aL7L
aL7L
aL7L
aL5L
aL7L
aL5L
aL5L
aL7L
aL7L
aL3L
aL0L
aL3L
aL3L
aL3L
aL3L
aL3L
aL3L
aL3L
aL0L
aL0L
aL0L
aL3L
aL0L
aL0L
aL3L
aL3L
aL0L
aL3L
aL3L
aL3L
aL3L
aL3L
aL3L
aL3L
aL3L
aL3L
aL3L
aL3L
aL3L
aL3L
aL3L
aL3L
aL3L
aL3L
aL2L
aL2L
aL3L
aL3L
aL3L
aL3L
aL3L
aL3L
aL3L
aL1L
aL3L
aL3L
aL3L
aL3L
aL3L
aL0L
aL0L
aL0L
aL0L
aL0L
aL0L
aL0L
aL0L
aL0L
aL0L
aL0L
aL0L
aL0L
aL0L
aL0L
aL9L
aL9L
aL9L
aL9L
aL9L
aL9L
aL9L
aL9L
aL9L
aL9L
aL9L
aL9L
aL9L
aL9L
aL9L
aL9L
aL9L
aL9L
aL9L
aL9L
aL9L
aL9L
aL9L
aL9L
aL9L
aL9L
aL9L
aL9L
aL9L
aL9L
aL9L
aa(lp166
L0L
aL0L
aL0L
aL0L
aL0L
aL7L
aL7L
aL7L
aL7L
aL7L
aL7L
aL7L
aL7L
aL7L
aL7L
aL5L
aL7L
aL7L
aL7L
aL6L
aL7L
aL6L
aL7L
aL5L
aL5L
aL6L
aL5L
aL5L
aL6L
aL6L
aL7L
aL6L
aL7L
aL0L
aL0L
aL0L
aL0L
aL0L
aL3L
aL3L
aL3L
aL3L
aL2L
aL2L
aL2L
aL3L
aL2L
aL2L
aL3L
aL2L
aL2L
aL2L
aL3L
aL3L
aL3L
aL3L
aL2L
aL3L
aL3L
aL2L
aL3L
aL3L
aL3L
aL3L
aL3L
aL7L
aL3L
aL0L
aL0L
aL0L
aL0L
aL0L
aL0L
aL0L
aL9L
aL9L
aL9L
aL9L
aL9L
aL9L
aL9L
aL9L
aL9L
aL9L
aL9L
aL9L
aL9L
aL9L
aL9L
aL9L
aL9L
aL9L
aL9L
aL9L
aL9L
aL9L
aL9L
aL9L
aL9L
aL9L
aL9L
aL9L
aL9L
aL9L
aL9L
aL9L
aL9L
aL9L
aL9L
aL9L
aL9L
aL9L
aa(lp167
L0L
aL0L
aL0L
aL0L
aL0L
aL0L
aL3L
aL7L
aL7L
aL7L
aL3L
aL7L
aL7L
aL7L
aL7L
aL1L
aL2L
aL1L
aL2L
aL1L
aL1L
aL2L
aL1L
aL1L
aL2L
aL1L
aL1L
aL2L
aL3L
aL2L
aL1L
aL0L
aL3L
aL0L
aL0L
aL3L
aL0L
aL0L
aL0L
aL0L
aL0L
aL0L
aL3L
aL0L
aL3L
aL0L
aL0L
aL0L
aL0L
aL0L
aL0L
aL3L
aL3L
aL3L
aL3L
aL3L
aL3L
aL3L
aL2L
aL3L
aL3L
aL3L
aL3L
aL3L
aL3L
aL3L
aL2L
aL3L
aL3L
aL3L
aL3L
aL3L
aL3L
aL3L
aL3L
aL3L
aL3L
aL3L
aL3L
aL3L
aL3L
aL3L
aL3L
aL2L
aL3L
aL2L
aL2L
aL2L
aL1L
aL3L
aL2L
aL2L
aL0L
aL0L
aL0L
aL0L
aL9L
aL9L
aL9L
aL9L
aL9L
aL9L
aL9L
aL9L
aL9L
aL9L
aL9L
aL9L
aL9L
aL9L
aL9L
aL9L
aa(lp168
L0L
aL0L
aL0L
aL0L
aL0L
aL0L
aL0L
aL6L
aL7L
aL6L
aL5L
aL0L
aL6L
aL6L
aL6L
aL5L
aL7L
aL5L
aL5L
aL5L
aL5L
aL7L
aL7L
aL7L
aL7L
aL7L
aL3L
aL3L
aL2L
aL2L
aL2L
aL3L
aL3L
aL3L
aL3L
aL3L
aL3L
aL3L
aL3L
aL3L
aL3L
aL3L
aL3L
aL3L
aL3L
aL3L
aL3L
aL3L
aL3L
aL3L
aL2L
aL2L
aL2L
aL1L
aL3L
aL1L
aL1L
aL3L
aL2L
aL3L
aL3L
aL3L
aL0L
aL1L
aL3L
aL3L
aL3L
aL0L
aL0L
aL0L
aL0L
aL0L
aL0L
aL0L
aL0L
aL0L
aL0L
aL0L
aL0L
aL3L
aL0L
aL0L
aL9L
aL9L
aL9L
aL9L
aL9L
aL9L
aL9L
aL9L
aL9L
aL9L
aL9L
aL9L
aL9L
aL9L
aL9L
aL9L
aL9L
aL9L
aL9L
aL9L
aL9L
aL9L
aL9L
aL9L
aL9L
aL9L
aL9L
aL9L
aL9L
aL9L
aa(lp169
L0L
aL0L
aL0L
aL0L
aL0L
aL0L
aL5L
aL6L
aL5L
aL5L
aL5L
aL5L
aL6L
aL6L
aL6L
aL7L
aL7L
aL5L
aL5L
aL6L
aL0L
aL0L
aL6L
aL7L
aL0L
aL6L
aL7L
aL5L
aL3L
aL6L
aL3L
aL3L
aL3L
aL3L
aL3L
aL3L
aL3L
aL3L
aL3L
aL3L
aL3L
aL3L
aL0L
aL3L
aL3L
aL6L
aL6L
aL3L
aL2L
aL3L
aL7L
aL7L
aL7L
aL7L
aL2L
aL2L
aL2L
aL2L
aL2L
aL2L
aL2L
aL2L
aL2L
aL2L
aL3L
aL2L
aL3L
aL3L
aL2L
aL3L
aL3L
aL3L
aL3L
aL3L
aL3L
aL3L
aL0L
aL3L
aL3L
aL0L
aL0L
aL0L
aL0L
aL3L
aL2L
aL3L
aL0L
aL3L
aL3L
aL3L
aL3L
aL1L
aL3L
aL0L
aL0L
aL0L
aL9L
aL9L
aL9L
aL9L
aL9L
aL9L
aL9L
aL9L
aL9L
aL9L
aL9L
aL9L
aL9L
aL9L
aL9L
aL9L
aa(lp170
L0L
aL0L
aL0L
aL0L
aL0L
aL0L
aL7L
aL7L
aL6L
aL0L
aL0L
aL7L
aL7L
aL7L
aL1L
aL0L
aL2L
aL2L
aL0L
aL7L
aL2L
aL2L
aL0L
aL0L
aL0L
aL0L
aL0L
aL7L
aL0L
aL0L
aL5L
aL5L
aL9L
aL9L
aL9L
aL9L
aL9L
aL9L
aL9L
aL9L
aL9L
aL9L
aL9L
aL9L
aL9L
aL9L
aL9L
aL9L
aL9L
aL9L
aL9L
aL9L
aL9L
aL9L
aL9L
aL9L
aL9L
aL9L
aL9L
aL9L
aL9L
aL9L
aL9L
aL9L
aL9L
aL9L
aL9L
aL9L
aL9L
aL9L
aL9L
aL9L
aL9L
aL9L
aL9L
aL9L
aL9L
aL9L
aL9L
aL9L
aL9L
aL9L
aL9L
aL9L
aL9L
aL9L
aL9L
aL9L
aL9L
aL9L
aL9L
aL9L
aL9L
aL9L
aL9L
aL9L
aL9L
aL9L
aL9L
aL9L
aL9L
aL9L
aL9L
aL9L
aL9L
aL9L
aL9L
aL9L
aL9L
aL9L
aL9L
aL9L
aa(lp171
L0L
aL0L
aL0L
aL0L
aL7L
aL7L
aL7L
aL6L
aL6L
aL6L
aL6L
aL6L
aL6L
aL7L
aL7L
aL6L
aL5L
aL5L
aL5L
aL5L
aL5L
aL7L
aL6L
aL7L
aL7L
aL0L
aL0L
aL0L
aL0L
aL0L
aL0L
aL0L
aL0L
aL0L
aL0L
aL0L
aL0L
aL0L
aL0L
aL7L
aL7L
aL7L
aL7L
aL0L
aL0L
aL0L
aL0L
aL0L
aL0L
aL0L
aL0L
aL0L
aL0L
aL0L
aL0L
aL3L
aL0L
aL0L
aL0L
aL0L
aL0L
aL0L
aL0L
aL0L
aL0L
aL3L
aL0L
aL3L
aL0L
aL0L
aL0L
aL0L
aL0L
aL0L
aL0L
aL2L
aL3L
aL1L
aL3L
aL0L
aL0L
aL1L
aL1L
aL1L
aL3L
aL0L
aL0L
aL9L
aL9L
aL9L
aL9L
aL9L
aL9L
aL9L
aL9L
aL9L
aL9L
aL9L
aL9L
aL9L
aL9L
aL9L
aL9L
aL9L
aL9L
aL9L
aL9L
aL9L
aL9L
aL9L
aL9L
aL9L
aa(lp172
L0L
aL0L
aL0L
aL7L
aL7L
aL0L
aL7L
aL7L
aL6L
aL7L
aL7L
aL5L
aL7L
aL5L
aL7L
aL5L
aL5L
aL7L
aL6L
aL7L
aL6L
aL7L
aL6L
aL7L
aL6L
aL6L
aL6L
aL7L
aL7L
aL0L
aL0L
aL6L
aL0L
aL0L
aL0L
aL0L
aL0L
aL0L
aL0L
aL5L
aL7L
aL6L
aL7L
aL7L
aL6L
aL7L
aL7L
aL6L
aL7L
aL7L
aL7L
aL7L
aL3L
aL2L
aL3L
aL3L
aL3L
aL3L
aL3L
aL3L
aL7L
aL3L
aL2L
aL7L
aL2L
aL7L
aL2L
aL1L
aL1L
aL1L
aL3L
aL3L
aL3L
aL3L
aL3L
aL3L
aL3L
aL3L
aL1L
aL2L
aL3L
aL3L
aL3L
aL3L
aL3L
aL3L
aL3L
aL3L
aL3L
aL3L
aL0L
aL3L
aL3L
aL3L
aL3L
aL1L
aL1L
aL1L
aL1L
aL1L
aL0L
aL0L
aL0L
aL9L
aL9L
aL9L
aL9L
aL9L
aL9L
aL9L
aL9L
aL9L
aa(lp173
L0L
aL0L
aL0L
aL0L
aL0L
aL0L
aL7L
aL7L
aL6L
aL7L
aL6L
aL7L
aL0L
aL7L
aL6L
aL7L
aL6L
aL0L
aL6L
aL6L
aL6L
aL7L
aL6L
aL6L
aL6L
aL6L
aL6L
aL6L
aL6L
aL6L
aL6L
aL6L
aL6L
aL6L
aL5L
aL6L
aL0L
aL0L
aL0L
aL6L
aL6L
aL6L
aL5L
aL5L
aL5L
aL6L
aL6L
aL7L
aL3L
aL7L
aL6L
aL6L
aL6L
aL6L
aL6L
aL3L
aL3L
aL3L
aL3L
aL3L
aL3L
aL3L
aL3L
aL5L
aL3L
aL7L
aL2L
aL3L
aL3L
aL7L
aL2L
aL2L
aL3L
aL3L
aL2L
aL3L
aL3L
aL3L
aL3L
aL0L
aL3L
aL3L
aL3L
aL3L
aL3L
aL2L
aL3L
aL3L
aL2L
aL3L
aL2L
aL2L
aL2L
aL2L
aL3L
aL2L
aL1L
aL2L
aL2L
aL2L
aL2L
aL2L
aL2L
aL2L
aL0L
aL0L
aL0L
aL0L
aL9L
aL9L
aL9L
aL9L
aa(lp174
L0L
aL0L
aL0L
aL0L
aL0L
aL0L
aL7L
aL7L
aL7L
aL3L
aL0L
aL7L
aL0L
aL0L
aL3L
aL0L
aL3L
aL0L
aL0L
aL3L
aL0L
aL0L
aL3L
aL0L
aL3L
aL0L
aL0L
aL3L
aL0L
aL0L
aL0L
aL0L
aL0L
aL3L
aL0L
aL0L
aL0L
aL0L
aL3L
aL0L
aL1L
aL3L
aL0L
aL0L
aL0L
aL0L
aL0L
aL0L
aL0L
aL0L
aL0L
aL0L
aL0L
aL0L
aL0L
aL0L
aL0L
aL0L
aL1L
aL0L
aL0L
aL1L
aL0L
aL3L
aL3L
aL0L
aL0L
aL0L
aL0L
aL9L
aL9L
aL9L
aL9L
aL9L
aL9L
aL9L
aL9L
aL9L
aL9L
aL9L
aL9L
aL9L
aL9L
aL9L
aL9L
aL9L
aL9L
aL9L
aL9L
aL9L
aL9L
aL9L
aL9L
aL9L
aL9L
aL9L
aL9L
aL9L
aL9L
aL9L
aL9L
aL9L
aL9L
aL9L
aL9L
aL9L
aL9L
aL9L
aL9L
aL9L
aL9L
aL9L
aa(lp175
L0L
aL0L
aL0L
aL0L
aL0L
aL0L
aL0L
aL0L
aL0L
aL0L
aL0L
aL6L
aL0L
aL5L
aL0L
aL5L
aL0L
aL6L
aL5L
aL6L
aL6L
aL5L
aL5L
aL6L
aL5L
aL7L
aL5L
aL5L
aL0L
aL3L
aL0L
aL0L
aL0L
aL0L
aL0L
aL3L
aL0L
aL1L
aL2L
aL0L
aL3L
aL3L
aL1L
aL0L
aL0L
aL0L
aL0L
aL3L
aL0L
aL0L
aL3L
aL2L
aL3L
aL3L
aL3L
aL3L
aL3L
aL3L
aL3L
aL3L
aL0L
aL0L
aL0L
aL0L
aL0L
aL0L
aL0L
aL0L
aL0L
aL0L
aL0L
aL0L
aL0L
aL0L
aL3L
aL1L
aL3L
aL3L
aL3L
aL1L
aL3L
aL3L
aL0L
aL0L
aL0L
aL0L
aL0L
aL9L
aL9L
aL9L
aL9L
aL9L
aL9L
aL9L
aL9L
aL9L
aL9L
aL9L
aL9L
aL9L
aL9L
aL9L
aL9L
aL9L
aL9L
aL9L
aL9L
aL9L
aL9L
aL9L
aL9L
aL9L
aa(lp176
L0L
aL0L
aL0L
aL0L
aL0L
aL0L
aL0L
aL7L
aL7L
aL7L
aL7L
aL7L
aL7L
aL7L
aL7L
aL5L
aL7L
aL5L
aL5L
aL5L
aL5L
aL5L
aL5L
aL5L
aL0L
aL0L
aL0L
aL0L
aL0L
aL0L
aL5L
aL5L
aL6L
aL0L
aL5L
aL0L
aL5L
aL0L
aL5L
aL7L
aL6L
aL6L
aL6L
aL5L
aL5L
aL7L
aL7L
aL7L
aL5L
aL7L
aL7L
aL7L
aL0L
aL3L
aL0L
aL0L
aL3L
aL0L
aL3L
aL3L
aL0L
aL3L
aL3L
aL0L
aL3L
aL3L
aL2L
aL2L
aL3L
aL2L
aL3L
aL3L
aL3L
aL2L
aL3L
aL2L
aL2L
aL3L
aL3L
aL0L
aL0L
aL3L
aL0L
aL3L
aL2L
aL1L
aL1L
aL0L
aL0L
aL0L
aL9L
aL9L
aL9L
aL9L
aL9L
aL9L
aL9L
aL9L
aL9L
aL9L
aL9L
aL9L
aL9L
aL9L
aL9L
aL9L
aL9L
aL9L
aL9L
aL9L
aL9L
aL9L
aa(lp177
L0L
aL0L
aL0L
aL0L
aL0L
aL0L
aL0L
aL0L
aL0L
aL0L
aL0L
aL0L
aL0L
aL0L
aL0L
aL0L
aL0L
aL0L
aL0L
aL7L
aL5L
aL5L
aL5L
aL6L
aL5L
aL7L
aL0L
aL7L
aL0L
aL0L
aL0L
aL0L
aL0L
aL0L
aL0L
aL7L
aL0L
aL0L
aL0L
aL0L
aL0L
aL0L
aL0L
aL0L
aL0L
aL0L
aL0L
aL0L
aL0L
aL0L
aL0L
aL0L
aL3L
aL0L
aL0L
aL3L
aL0L
aL0L
aL3L
aL0L
aL0L
aL3L
aL3L
aL3L
aL4L
aL3L
aL1L
aL1L
aL3L
aL0L
aL0L
aL0L
aL9L
aL9L
aL9L
aL9L
aL9L
aL9L
aL9L
aL9L
aL9L
aL9L
aL9L
aL9L
aL9L
aL9L
aL9L
aL9L
aL9L
aL9L
aL9L
aL9L
aL9L
aL9L
aL9L
aL9L
aL9L
aL9L
aL9L
aL9L
aL9L
aL9L
aL9L
aL9L
aL9L
aL9L
aL9L
aL9L
aL9L
aL9L
aL9L
aL9L
aa(lp178
L0L
aL0L
aL0L
aL7L
aL7L
aL5L
aL0L
aL0L
aL0L
aL0L
aL0L
aL0L
aL7L
aL7L
aL5L
aL6L
aL5L
aL5L
aL6L
aL5L
aL5L
aL7L
aL0L
aL0L
aL0L
aL0L
aL7L
aL0L
aL0L
aL3L
aL0L
aL0L
aL0L
aL5L
aL7L
aL0L
aL7L
aL7L
aL7L
aL2L
aL2L
aL3L
aL3L
aL3L
aL2L
aL2L
aL2L
aL2L
aL2L
aL2L
aL2L
aL2L
aL2L
aL2L
aL2L
aL1L
aL2L
aL0L
aL0L
aL0L
aL9L
aL9L
aL9L
aL9L
aL9L
aL9L
aL9L
aL9L
aL9L
aL9L
aL9L
aL9L
aL9L
aL9L
aL9L
aL9L
aL9L
aL9L
aL9L
aL9L
aL9L
aL9L
aL9L
aL9L
aL9L
aL9L
aL9L
aL9L
aL9L
aL9L
aL9L
aL9L
aL9L
aL9L
aL9L
aL9L
aL9L
aL9L
aL9L
aL9L
aL9L
aL9L
aL9L
aL9L
aL9L
aL9L
aL9L
aL9L
aL9L
aL9L
aL9L
aL9L
aa(lp179
L0L
aL0L
aL0L
aL0L
aL0L
aL0L
aL0L
aL0L
aL0L
aL0L
aL0L
aL0L
aL0L
aL0L
aL1L
aL0L
aL5L
aL0L
aL0L
aL7L
aL0L
aL0L
aL0L
aL0L
aL7L
aL3L
aL0L
aL3L
aL0L
aL0L
aL0L
aL0L
aL0L
aL3L
aL0L
aL3L
aL3L
aL0L
aL0L
aL0L
aL0L
aL3L
aL0L
aL0L
aL3L
aL0L
aL0L
aL3L
aL3L
aL0L
aL3L
aL3L
aL1L
aL1L
aL3L
aL3L
aL1L
aL1L
aL1L
aL3L
aL3L
aL0L
aL3L
aL3L
aL3L
aL1L
aL1L
aL0L
aL0L
aL0L
aL3L
aL0L
aL0L
aL0L
aL0L
aL0L
aL0L
aL0L
aL0L
aL0L
aL0L
aL0L
aL0L
aL0L
aL0L
aL0L
aL0L
aL0L
aL0L
aL0L
aL0L
aL0L
aL0L
aL1L
aL0L
aL0L
aL0L
aL0L
aL0L
aL0L
aL9L
aL9L
aL9L
aL9L
aL9L
aL9L
aL9L
aL9L
aL9L
aL9L
aL9L
aL9L
aa(lp180
L0L
aL0L
aL0L
aL0L
aL7L
aL5L
aL6L
aL5L
aL5L
aL6L
aL6L
aL6L
aL6L
aL6L
aL0L
aL0L
aL0L
aL0L
aL0L
aL0L
aL0L
aL0L
aL6L
aL0L
aL7L
aL6L
aL0L
aL0L
aL0L
aL3L
aL3L
aL3L
aL3L
aL3L
aL3L
aL3L
aL3L
aL3L
aL3L
aL3L
aL3L
aL3L
aL3L
aL3L
aL3L
aL2L
aL3L
aL0L
aL0L
aL0L
aL0L
aL0L
aL0L
aL0L
aL0L
aL3L
aL3L
aL2L
aL2L
aL3L
aL3L
aL2L
aL2L
aL2L
aL1L
aL2L
aL3L
aL0L
aL0L
aL0L
aL0L
aL0L
aL0L
aL3L
aL0L
aL0L
aL0L
aL0L
aL9L
aL9L
aL9L
aL9L
aL9L
aL9L
aL9L
aL9L
aL9L
aL9L
aL9L
aL9L
aL9L
aL9L
aL9L
aL9L
aL9L
aL9L
aL9L
aL9L
aL9L
aL9L
aL9L
aL9L
aL9L
aL9L
aL9L
aL9L
aL9L
aL9L
aL9L
aL9L
aL9L
aL9L
aa(lp181
L0L
aL0L
aL0L
aL0L
aL7L
aL7L
aL7L
aL7L
aL6L
aL6L
aL7L
aL6L
aL0L
aL0L
aL0L
aL0L
aL0L
aL0L
aL0L
aL0L
aL0L
aL5L
aL5L
aL5L
aL5L
aL7L
aL5L
aL5L
aL6L
aL6L
aL7L
aL6L
aL5L
aL6L
aL6L
aL7L
aL3L
aL3L
aL3L
aL3L
aL3L
aL3L
aL3L
aL2L
aL1L
aL3L
aL3L
aL3L
aL3L
aL3L
aL1L
aL3L
aL2L
aL3L
aL3L
aL2L
aL3L
aL2L
aL1L
aL3L
aL1L
aL2L
aL3L
aL1L
aL3L
aL3L
aL2L
aL3L
aL3L
aL3L
aL0L
aL2L
aL0L
aL1L
aL3L
aL3L
aL2L
aL3L
aL2L
aL1L
aL2L
aL1L
aL0L
aL0L
aL9L
aL9L
aL9L
aL9L
aL9L
aL9L
aL9L
aL9L
aL9L
aL9L
aL9L
aL9L
aL9L
aL9L
aL9L
aL9L
aL9L
aL9L
aL9L
aL9L
aL9L
aL9L
aL9L
aL9L
aL9L
aL9L
aL9L
aL9L
aa(lp182
L0L
aL0L
aL0L
aL0L
aL7L
aL7L
aL7L
aL6L
aL6L
aL5L
aL6L
aL6L
aL0L
aL0L
aL0L
aL0L
aL0L
aL0L
aL0L
aL0L
aL0L
aL0L
aL5L
aL5L
aL7L
aL7L
aL0L
aL0L
aL3L
aL7L
aL7L
aL7L
aL7L
aL7L
aL0L
aL7L
aL3L
aL0L
aL0L
aL3L
aL3L
aL3L
aL3L
aL3L
aL3L
aL3L
aL3L
aL3L
aL3L
aL3L
aL3L
aL3L
aL3L
aL7L
aL3L
aL2L
aL3L
aL2L
aL2L
aL3L
aL3L
aL3L
aL3L
aL3L
aL3L
aL3L
aL3L
aL3L
aL3L
aL3L
aL3L
aL3L
aL3L
aL3L
aL3L
aL3L
aL3L
aL3L
aL3L
aL3L
aL3L
aL3L
aL3L
aL3L
aL3L
aL3L
aL3L
aL2L
aL2L
aL0L
aL0L
aL9L
aL9L
aL9L
aL9L
aL9L
aL9L
aL9L
aL9L
aL9L
aL9L
aL9L
aL9L
aL9L
aL9L
aL9L
aL9L
aL9L
aL9L
aL9L
aL9L
aL9L
aa(lp183
L0L
aL0L
aL0L
aL0L
aL0L
aL0L
aL0L
aL0L
aL0L
aL0L
aL0L
aL0L
aL0L
aL0L
aL0L
aL5L
aL6L
aL7L
aL7L
aL5L
aL5L
aL9L
aL9L
aL9L
aL9L
aL9L
aL9L
aL9L
aL9L
aL9L
aL9L
aL9L
aL9L
aL9L
aL9L
aL9L
aL9L
aL9L
aL9L
aL9L
aL9L
aL9L
aL9L
aL9L
aL9L
aL9L
aL9L
aL9L
aL9L
aL9L
aL9L
aL9L
aL9L
aL9L
aL9L
aL9L
aL9L
aL9L
aL9L
aL9L
aL9L
aL9L
aL9L
aL9L
aL9L
aL9L
aL9L
aL9L
aL9L
aL9L
aL9L
aL9L
aL9L
aL9L
aL9L
aL9L
aL9L
aL9L
aL9L
aL9L
aL9L
aL9L
aL9L
aL9L
aL9L
aL9L
aL9L
aL9L
aL9L
aL9L
aL9L
aL9L
aL9L
aL9L
aL9L
aL9L
aL9L
aL9L
aL9L
aL9L
aL9L
aL9L
aL9L
aL9L
aL9L
aL9L
aL9L
aL9L
aL9L
aL9L
aL9L
aL9L
aa(lp184
L0L
aL0L
aL0L
aL0L
aL0L
aL0L
aL0L
aL0L
aL0L
aL0L
aL0L
aL0L
aL7L
aL6L
aL6L
aL6L
aL6L
aL5L
aL7L
aL6L
aL7L
aL6L
aL5L
aL7L
aL0L
aL7L
aL7L
aL0L
aL0L
aL0L
aL6L
aL5L
aL5L
aL5L
aL9L
aL9L
aL9L
aL9L
aL9L
aL9L
aL9L
aL9L
aL9L
aL9L
aL9L
aL9L
aL9L
aL9L
aL9L
aL9L
aL9L
aL9L
aL9L
aL9L
aL9L
aL9L
aL9L
aL9L
aL9L
aL9L
aL9L
aL9L
aL9L
aL9L
aL9L
aL9L
aL9L
aL9L
aL9L
aL9L
aL9L
aL9L
aL9L
aL9L
aL9L
aL9L
aL9L
aL9L
aL9L
aL9L
aL9L
aL9L
aL9L
aL9L
aL9L
aL9L
aL9L
aL9L
aL9L
aL9L
aL9L
aL9L
aL9L
aL9L
aL9L
aL9L
aL9L
aL9L
aL9L
aL9L
aL9L
aL9L
aL9L
aL9L
aL9L
aL9L
aL9L
aL9L
aL9L
aL9L
aL9L
aL9L
aa(lp185
L0L
aL0L
aL0L
aL0L
aL0L
aL0L
aL0L
aL0L
aL0L
aL0L
aL0L
aL0L
aL0L
aL0L
aL0L
aL0L
aL0L
aL0L
aL0L
aL3L
aL3L
aL3L
aL3L
aL3L
aL1L
aL3L
aL0L
aL0L
aL0L
aL3L
aL3L
aL3L
aL1L
aL3L
aL0L
aL1L
aL3L
aL3L
aL3L
aL3L
aL3L
aL3L
aL3L
aL3L
aL3L
aL3L
aL3L
aL3L
aL3L
aL3L
aL3L
aL3L
aL3L
aL1L
aL3L
aL3L
aL3L
aL3L
aL3L
aL3L
aL3L
aL3L
aL3L
aL2L
aL2L
aL3L
aL2L
aL2L
aL3L
aL2L
aL3L
aL3L
aL2L
aL3L
aL2L
aL2L
aL3L
aL2L
aL3L
aL3L
aL2L
aL2L
aL2L
aL2L
aL2L
aL0L
aL9L
aL9L
aL9L
aL9L
aL9L
aL9L
aL9L
aL9L
aL9L
aL9L
aL9L
aL9L
aL9L
aL9L
aL9L
aL9L
aL9L
aL9L
aL9L
aL9L
aL9L
aL9L
aL9L
aL9L
aL9L
aL9L
aa(lp186
L0L
aL0L
aL0L
aL0L
aL7L
aL7L
aL7L
aL7L
aL0L
aL0L
aL0L
aL0L
aL0L
aL0L
aL0L
aL0L
aL0L
aL0L
aL0L
aL0L
aL0L
aL0L
aL6L
aL0L
aL5L
aL5L
aL0L
aL0L
aL1L
aL0L
aL0L
aL0L
aL0L
aL0L
aL0L
aL0L
aL0L
aL0L
aL0L
aL0L
aL0L
aL0L
aL0L
aL3L
aL3L
aL0L
aL3L
aL0L
aL0L
aL3L
aL0L
aL0L
aL3L
aL3L
aL3L
aL3L
aL0L
aL2L
aL3L
aL3L
aL6L
aL3L
aL2L
aL3L
aL3L
aL3L
aL3L
aL3L
aL2L
aL3L
aL2L
aL3L
aL3L
aL2L
aL3L
aL3L
aL3L
aL3L
aL3L
aL3L
aL3L
aL2L
aL3L
aL2L
aL3L
aL3L
aL2L
aL0L
aL3L
aL2L
aL0L
aL3L
aL2L
aL3L
aL2L
aL3L
aL2L
aL1L
aL0L
aL0L
aL0L
aL0L
aL9L
aL9L
aL9L
aL9L
aL9L
aL9L
aL9L
aL9L
aL9L
aL9L
aa(lp187
L0L
aL0L
aL0L
aL5L
aL5L
aL5L
aL5L
aL6L
aL6L
aL5L
aL5L
aL0L
aL0L
aL0L
aL0L
aL0L
aL0L
aL0L
aL0L
aL0L
aL0L
aL0L
aL5L
aL5L
aL6L
aL6L
aL7L
aL7L
aL0L
aL5L
aL6L
aL7L
aL0L
aL0L
aL3L
aL3L
aL0L
aL3L
aL3L
aL0L
aL0L
aL3L
aL3L
aL0L
aL3L
aL3L
aL2L
aL0L
aL0L
aL3L
aL3L
aL3L
aL3L
aL0L
aL0L
aL0L
aL3L
aL3L
aL7L
aL2L
aL0L
aL3L
aL3L
aL3L
aL3L
aL0L
aL0L
aL3L
aL0L
aL0L
aL0L
aL0L
aL2L
aL0L
aL3L
aL0L
aL0L
aL2L
aL3L
aL3L
aL2L
aL3L
aL2L
aL3L
aL3L
aL3L
aL3L
aL2L
aL2L
aL1L
aL1L
aL1L
aL9L
aL9L
aL9L
aL9L
aL9L
aL9L
aL9L
aL9L
aL9L
aL9L
aL9L
aL9L
aL9L
aL9L
aL9L
aL9L
aL9L
aL9L
aL9L
aL9L
aa(lp188
L0L
aL0L
aL0L
aL0L
aL7L
aL7L
aL7L
aL7L
aL6L
aL6L
aL5L
aL5L
aL7L
aL0L
aL7L
aL0L
aL6L
aL7L
aL6L
aL6L
aL7L
aL5L
aL5L
aL6L
aL5L
aL7L
aL3L
aL3L
aL0L
aL0L
aL0L
aL0L
aL0L
aL0L
aL0L
aL5L
aL3L
aL6L
aL6L
aL3L
aL3L
aL3L
aL0L
aL0L
aL0L
aL0L
aL7L
aL0L
aL3L
aL3L
aL3L
aL3L
aL3L
aL3L
aL3L
aL3L
aL0L
aL0L
aL0L
aL0L
aL3L
aL0L
aL0L
aL0L
aL0L
aL0L
aL0L
aL0L
aL0L
aL0L
aL3L
aL0L
aL3L
aL3L
aL3L
aL0L
aL3L
aL3L
aL3L
aL3L
aL3L
aL3L
aL3L
aL3L
aL3L
aL3L
aL3L
aL3L
aL3L
aL3L
aL0L
aL1L
aL3L
aL0L
aL0L
aL0L
aL9L
aL9L
aL9L
aL9L
aL9L
aL9L
aL9L
aL9L
aL9L
aL9L
aL9L
aL9L
aL9L
aL9L
aL9L
aL9L
aa(lp189
L0L
aL0L
aL0L
aL0L
aL0L
aL0L
aL0L
aL0L
aL0L
aL0L
aL3L
aL3L
aL0L
aL3L
aL3L
aL3L
aL2L
aL3L
aL3L
aL0L
aL0L
aL0L
aL0L
aL0L
aL0L
aL0L
aL2L
aL0L
aL0L
aL3L
aL3L
aL3L
aL0L
aL3L
aL3L
aL2L
aL3L
aL1L
aL3L
aL1L
aL0L
aL0L
aL0L
aL0L
aL0L
aL3L
aL3L
aL7L
aL3L
aL3L
aL3L
aL1L
aL3L
aL3L
aL0L
aL1L
aL0L
aL0L
aL0L
aL0L
aL3L
aL0L
aL3L
aL0L
aL3L
aL3L
aL0L
aL6L
aL0L
aL0L
aL6L
aL0L
aL0L
aL0L
aL0L
aL3L
aL0L
aL0L
aL3L
aL0L
aL1L
aL3L
aL0L
aL9L
aL9L
aL9L
aL9L
aL9L
aL9L
aL9L
aL9L
aL9L
aL9L
aL9L
aL9L
aL9L
aL9L
aL9L
aL9L
aL9L
aL9L
aL9L
aL9L
aL9L
aL9L
aL9L
aL9L
aL9L
aL9L
aL9L
aL9L
aL9L
aa(lp190
L0L
aL0L
aL0L
aL0L
aL0L
aL0L
aL7L
aL0L
aL0L
aL0L
aL0L
aL0L
aL0L
aL0L
aL0L
aL0L
aL0L
aL0L
aL0L
aL0L
aL7L
aL7L
aL7L
aL7L
aL7L
aL7L
aL7L
aL7L
aL7L
aL7L
aL7L
aL0L
aL0L
aL0L
aL0L
aL0L
aL0L
aL0L
aL0L
aL0L
aL0L
aL0L
aL0L
aL0L
aL0L
aL7L
aL7L
aL7L
aL3L
aL0L
aL3L
aL3L
aL0L
aL7L
aL7L
aL7L
aL7L
aL7L
aL7L
aL7L
aL7L
aL7L
aL7L
aL1L
aL3L
aL0L
aL3L
aL3L
aL0L
aL3L
aL0L
aL3L
aL3L
aL0L
aL3L
aL0L
aL3L
aL2L
aL3L
aL2L
aL7L
aL3L
aL2L
aL3L
aL2L
aL3L
aL2L
aL3L
aL2L
aL2L
aL2L
aL2L
aL2L
aL1L
aL1L
aL0L
aL0L
aL0L
aL9L
aL9L
aL9L
aL9L
aL9L
aL9L
aL9L
aL9L
aL9L
aL9L
aL9L
aL9L
aL9L
aL9L
aa(lp191
L0L
aL0L
aL0L
aL0L
aL0L
aL0L
aL0L
aL7L
aL0L
aL0L
aL0L
aL0L
aL0L
aL0L
aL0L
aL0L
aL0L
aL0L
aL0L
aL0L
aL7L
aL5L
aL0L
aL0L
aL0L
aL7L
aL7L
aL7L
aL6L
aL7L
aL7L
aL0L
aL0L
aL3L
aL0L
aL3L
aL1L
aL1L
aL0L
aL2L
aL0L
aL0L
aL0L
aL0L
aL0L
aL2L
aL3L
aL2L
aL3L
aL3L
aL3L
aL6L
aL6L
aL6L
aL7L
aL6L
aL7L
aL0L
aL7L
aL2L
aL1L
aL1L
aL1L
aL2L
aL1L
aL3L
aL1L
aL3L
aL3L
aL0L
aL0L
aL0L
aL0L
aL3L
aL3L
aL3L
aL3L
aL3L
aL2L
aL0L
aL0L
aL0L
aL0L
aL0L
aL3L
aL3L
aL2L
aL3L
aL1L
aL1L
aL1L
aL9L
aL9L
aL9L
aL9L
aL9L
aL9L
aL9L
aL9L
aL9L
aL9L
aL9L
aL9L
aL9L
aL9L
aL9L
aL9L
aL9L
aL9L
aL9L
aL9L
aL9L
aa(lp192
L0L
aL0L
aL0L
aL0L
aL0L
aL0L
aL0L
aL0L
aL0L
aL0L
aL0L
aL0L
aL0L
aL0L
aL0L
aL0L
aL0L
aL0L
aL0L
aL0L
aL0L
aL0L
aL7L
aL0L
aL5L
aL0L
aL0L
aL0L
aL0L
aL0L
aL0L
aL0L
aL0L
aL0L
aL3L
aL3L
aL0L
aL5L
aL7L
aL6L
aL0L
aL0L
aL0L
aL3L
aL3L
aL2L
aL3L
aL3L
aL3L
aL3L
aL3L
aL1L
aL3L
aL3L
aL3L
aL0L
aL3L
aL0L
aL0L
aL3L
aL0L
aL0L
aL0L
aL0L
aL3L
aL0L
aL3L
aL1L
aL0L
aL2L
aL2L
aL3L
aL0L
aL0L
aL0L
aL9L
aL9L
aL9L
aL9L
aL9L
aL9L
aL9L
aL9L
aL9L
aL9L
aL9L
aL9L
aL9L
aL9L
aL9L
aL9L
aL9L
aL9L
aL9L
aL9L
aL9L
aL9L
aL9L
aL9L
aL9L
aL9L
aL9L
aL9L
aL9L
aL9L
aL9L
aL9L
aL9L
aL9L
aL9L
aL9L
aL9L
aa(lp193
L0L
aL0L
aL0L
aL0L
aL0L
aL0L
aL0L
aL0L
aL0L
aL0L
aL0L
aL0L
aL0L
aL0L
aL0L
aL0L
aL0L
aL0L
aL7L
aL0L
aL6L
aL5L
aL7L
aL5L
aL0L
aL0L
aL7L
aL0L
aL0L
aL3L
aL0L
aL0L
aL7L
aL0L
aL2L
aL0L
aL0L
aL5L
aL0L
aL5L
aL6L
aL3L
aL3L
aL3L
aL2L
aL3L
aL3L
aL3L
aL3L
aL3L
aL3L
aL3L
aL3L
aL2L
aL3L
aL3L
aL3L
aL3L
aL3L
aL3L
aL3L
aL0L
aL3L
aL0L
aL0L
aL0L
aL0L
aL3L
aL3L
aL3L
aL3L
aL3L
aL3L
aL3L
aL3L
aL0L
aL3L
aL0L
aL0L
aL0L
aL0L
aL3L
aL0L
aL0L
aL3L
aL0L
aL3L
aL3L
aL3L
aL1L
aL0L
aL1L
aL2L
aL2L
aL1L
aL9L
aL9L
aL9L
aL9L
aL9L
aL9L
aL9L
aL9L
aL9L
aL9L
aL9L
aL9L
aL9L
aL9L
aL9L
aL9L
aL9L
aa(lp194
L0L
aL0L
aL0L
aL0L
aL7L
aL7L
aL6L
aL7L
aL7L
aL7L
aL6L
aL6L
aL5L
aL6L
aL5L
aL0L
aL5L
aL5L
aL6L
aL5L
aL5L
aL6L
aL5L
aL5L
aL5L
aL5L
aL6L
aL6L
aL0L
aL0L
aL0L
aL6L
aL0L
aL2L
aL3L
aL3L
aL3L
aL3L
aL0L
aL3L
aL3L
aL3L
aL3L
aL3L
aL3L
aL3L
aL2L
aL3L
aL3L
aL3L
aL3L
aL3L
aL3L
aL3L
aL3L
aL3L
aL3L
aL3L
aL3L
aL3L
aL3L
aL3L
aL3L
aL3L
aL3L
aL3L
aL3L
aL0L
aL0L
aL0L
aL3L
aL3L
aL2L
aL2L
aL3L
aL1L
aL2L
aL2L
aL2L
aL1L
aL1L
aL1L
aL9L
aL9L
aL9L
aL9L
aL9L
aL9L
aL9L
aL9L
aL9L
aL9L
aL9L
aL9L
aL9L
aL9L
aL9L
aL9L
aL9L
aL9L
aL9L
aL9L
aL9L
aL9L
aL9L
aL9L
aL9L
aL9L
aL9L
aL9L
aL9L
aL9L
aa(lp195
L0L
aL0L
aL0L
aL0L
aL0L
aL0L
aL7L
aL5L
aL5L
aL6L
aL6L
aL7L
aL0L
aL6L
aL7L
aL6L
aL6L
aL7L
aL5L
aL6L
aL5L
aL5L
aL6L
aL0L
aL7L
aL0L
aL7L
aL0L
aL7L
aL0L
aL0L
aL0L
aL0L
aL0L
aL0L
aL0L
aL1L
aL0L
aL0L
aL0L
aL0L
aL0L
aL0L
aL0L
aL0L
aL3L
aL3L
aL3L
aL0L
aL2L
aL0L
aL3L
aL3L
aL3L
aL3L
aL3L
aL3L
aL3L
aL3L
aL3L
aL2L
aL2L
aL0L
aL3L
aL3L
aL1L
aL0L
aL0L
aL0L
aL0L
aL0L
aL0L
aL0L
aL0L
aL0L
aL0L
aL0L
aL3L
aL1L
aL0L
aL3L
aL0L
aL0L
aL1L
aL0L
aL3L
aL3L
aL3L
aL0L
aL3L
aL1L
aL2L
aL3L
aL0L
aL9L
aL9L
aL9L
aL9L
aL9L
aL9L
aL9L
aL9L
aL9L
aL9L
aL9L
aL9L
aL9L
aL9L
aL9L
aL9L
aL9L
aL9L
aa(lp196
L0L
aL0L
aL7L
aL7L
aL7L
aL6L
aL6L
aL6L
aL6L
aL6L
aL5L
aL6L
aL7L
aL6L
aL0L
aL6L
aL6L
aL6L
aL6L
aL5L
aL6L
aL5L
aL5L
aL5L
aL5L
aL0L
aL6L
aL6L
aL6L
aL6L
aL6L
aL7L
aL6L
aL0L
aL7L
aL6L
aL6L
aL5L
aL6L
aL6L
aL0L
aL3L
aL3L
aL3L
aL3L
aL5L
aL3L
aL6L
aL3L
aL3L
aL5L
aL3L
aL2L
aL6L
aL3L
aL2L
aL7L
aL3L
aL2L
aL1L
aL2L
aL3L
aL1L
aL2L
aL3L
aL2L
aL3L
aL2L
aL2L
aL3L
aL2L
aL0L
aL2L
aL3L
aL3L
aL3L
aL3L
aL2L
aL2L
aL3L
aL1L
aL3L
aL3L
aL3L
aL3L
aL1L
aL1L
aL3L
aL1L
aL3L
aL2L
aL1L
aL0L
aL2L
aL0L
aL0L
aL0L
aL9L
aL9L
aL9L
aL9L
aL9L
aL9L
aL9L
aL9L
aL9L
aL9L
aL9L
aL9L
aL9L
aL9L
aL9L
aa(lp197
L0L
aL0L
aL0L
aL7L
aL7L
aL0L
aL5L
aL7L
aL7L
aL6L
aL7L
aL7L
aL7L
aL6L
aL7L
aL7L
aL6L
aL0L
aL6L
aL7L
aL0L
aL6L
aL7L
aL6L
aL5L
aL5L
aL5L
aL7L
aL5L
aL5L
aL0L
aL0L
aL0L
aL0L
aL7L
aL7L
aL0L
aL0L
aL0L
aL0L
aL0L
aL0L
aL0L
aL0L
aL0L
aL0L
aL0L
aL0L
aL0L
aL0L
aL6L
aL6L
aL6L
aL6L
aL7L
aL6L
aL7L
aL7L
aL5L
aL7L
aL7L
aL0L
aL0L
aL2L
aL0L
aL0L
aL0L
aL0L
aL2L
aL3L
aL0L
aL3L
aL3L
aL3L
aL3L
aL3L
aL3L
aL3L
aL2L
aL3L
aL0L
aL2L
aL0L
aL0L
aL0L
aL0L
aL3L
aL3L
aL3L
aL3L
aL3L
aL2L
aL3L
aL2L
aL1L
aL1L
aL1L
aL0L
aL0L
aL9L
aL9L
aL9L
aL9L
aL9L
aL9L
aL9L
aL9L
aL9L
aL9L
aL9L
aL9L
aL9L
aa(lp198
L0L
aL0L
aL0L
aL0L
aL5L
aL7L
aL5L
aL7L
aL5L
aL6L
aL5L
aL5L
aL5L
aL5L
aL6L
aL5L
aL6L
aL6L
aL6L
aL6L
aL6L
aL5L
aL6L
aL6L
aL5L
aL5L
aL5L
aL9L
aL9L
aL9L
aL9L
aL9L
aL9L
aL9L
aL9L
aL9L
aL9L
aL9L
aL9L
aL9L
aL9L
aL9L
aL9L
aL9L
aL9L
aL9L
aL9L
aL9L
aL9L
aL9L
aL9L
aL9L
aL9L
aL9L
aL9L
aL9L
aL9L
aL9L
aL9L
aL9L
aL9L
aL9L
aL9L
aL9L
aL9L
aL9L
aL9L
aL9L
aL9L
aL9L
aL9L
aL9L
aL9L
aL9L
aL9L
aL9L
aL9L
aL9L
aL9L
aL9L
aL9L
aL9L
aL9L
aL9L
aL9L
aL9L
aL9L
aL9L
aL9L
aL9L
aL9L
aL9L
aL9L
aL9L
aL9L
aL9L
aL9L
aL9L
aL9L
aL9L
aL9L
aL9L
aL9L
aL9L
aL9L
aL9L
aL9L
aL9L
aL9L
aL9L
aL9L
aL9L
aa(lp199
L0L
aL0L
aL7L
aL7L
aL7L
aL6L
aL7L
aL6L
aL6L
aL7L
aL6L
aL6L
aL5L
aL5L
aL0L
aL5L
aL6L
aL5L
aL6L
aL6L
aL5L
aL5L
aL6L
aL5L
aL6L
aL5L
aL6L
aL5L
aL5L
aL5L
aL7L
aL5L
aL5L
aL5L
aL7L
aL7L
aL0L
aL3L
aL0L
aL0L
aL0L
aL2L
aL3L
aL2L
aL2L
aL3L
aL2L
aL3L
aL2L
aL2L
aL2L
aL2L
aL2L
aL2L
aL2L
aL2L
aL2L
aL1L
aL3L
aL1L
aL2L
aL2L
aL3L
aL3L
aL3L
aL3L
aL3L
aL3L
aL3L
aL3L
aL2L
aL2L
aL1L
aL3L
aL2L
aL2L
aL3L
aL2L
aL3L
aL2L
aL2L
aL2L
aL1L
aL2L
aL2L
aL0L
aL0L
aL0L
aL0L
aL0L
aL0L
aL9L
aL9L
aL9L
aL9L
aL9L
aL9L
aL9L
aL9L
aL9L
aL9L
aL9L
aL9L
aL9L
aL9L
aL9L
aL9L
aL9L
aL9L
aL9L
aL9L
aL9L
aa(lp200
L0L
aL0L
aL0L
aL0L
aL0L
aL0L
aL0L
aL0L
aL0L
aL0L
aL0L
aL0L
aL7L
aL7L
aL7L
aL5L
aL5L
aL5L
aL9L
aL9L
aL9L
aL9L
aL9L
aL9L
aL9L
aL9L
aL9L
aL9L
aL9L
aL9L
aL9L
aL9L
aL9L
aL9L
aL9L
aL9L
aL9L
aL9L
aL9L
aL9L
aL9L
aL9L
aL9L
aL9L
aL9L
aL9L
aL9L
aL9L
aL9L
aL9L
aL9L
aL9L
aL9L
aL9L
aL9L
aL9L
aL9L
aL9L
aL9L
aL9L
aL9L
aL9L
aL9L
aL9L
aL9L
aL9L
aL9L
aL9L
aL9L
aL9L
aL9L
aL9L
aL9L
aL9L
aL9L
aL9L
aL9L
aL9L
aL9L
aL9L
aL9L
aL9L
aL9L
aL9L
aL9L
aL9L
aL9L
aL9L
aL9L
aL9L
aL9L
aL9L
aL9L
aL9L
aL9L
aL9L
aL9L
aL9L
aL9L
aL9L
aL9L
aL9L
aL9L
aL9L
aL9L
aL9L
aL9L
aL9L
aL9L
aL9L
aL9L
aL9L
aa(lp201
L0L
aL7L
aL5L
aL6L
aL7L
aL5L
aL6L
aL5L
aL5L
aL6L
aL5L
aL6L
aL5L
aL6L
aL5L
aL5L
aL6L
aL6L
aL5L
aL6L
aL5L
aL7L
aL6L
aL7L
aL6L
aL6L
aL7L
aL6L
aL6L
aL6L
aL6L
aL0L
aL6L
aL6L
aL6L
aL0L
aL5L
aL6L
aL3L
aL1L
aL3L
aL0L
aL3L
aL0L
aL0L
aL0L
aL0L
aL2L
aL0L
aL0L
aL0L
aL0L
aL0L
aL0L
aL0L
aL3L
aL0L
aL0L
aL3L
aL0L
aL0L
aL3L
aL0L
aL3L
aL0L
aL0L
aL0L
aL0L
aL0L
aL0L
aL0L
aL0L
aL0L
aL0L
aL0L
aL0L
aL0L
aL3L
aL3L
aL2L
aL3L
aL3L
aL2L
aL3L
aL3L
aL2L
aL3L
aL2L
aL3L
aL0L
aL0L
aL0L
aL0L
aL9L
aL9L
aL9L
aL9L
aL9L
aL9L
aL9L
aL9L
aL9L
aL9L
aL9L
aL9L
aL9L
aL9L
aL9L
aL9L
aL9L
aL9L
aL9L
aa(lp202
L0L
aL0L
aL0L
aL7L
aL7L
aL5L
aL7L
aL5L
aL6L
aL6L
aL5L
aL5L
aL0L
aL0L
aL0L
aL0L
aL0L
aL0L
aL0L
aL0L
aL0L
aL0L
aL6L
aL5L
aL6L
aL6L
aL5L
aL6L
aL5L
aL6L
aL7L
aL6L
aL6L
aL0L
aL0L
aL0L
aL0L
aL0L
aL0L
aL3L
aL3L
aL3L
aL3L
aL3L
aL3L
aL2L
aL2L
aL3L
aL3L
aL3L
aL3L
aL1L
aL3L
aL1L
aL3L
aL3L
aL2L
aL3L
aL1L
aL3L
aL3L
aL0L
aL0L
aL3L
aL2L
aL0L
aL3L
aL0L
aL0L
aL0L
aL0L
aL3L
aL0L
aL0L
aL0L
aL0L
aL0L
aL0L
aL0L
aL1L
aL3L
aL0L
aL2L
aL0L
aL3L
aL1L
aL0L
aL0L
aL0L
aL0L
aL0L
aL0L
aL0L
aL9L
aL9L
aL9L
aL9L
aL9L
aL9L
aL9L
aL9L
aL9L
aL9L
aL9L
aL9L
aL9L
aL9L
aL9L
aL9L
aL9L
aL9L
aL9L
aa(lp203
L0L
aL0L
aL0L
aL7L
aL7L
aL7L
aL7L
aL0L
aL7L
aL0L
aL7L
aL0L
aL7L
aL6L
aL7L
aL5L
aL6L
aL5L
aL5L
aL5L
aL5L
aL5L
aL5L
aL6L
aL5L
aL6L
aL6L
aL6L
aL7L
aL7L
aL0L
aL0L
aL0L
aL0L
aL1L
aL0L
aL0L
aL0L
aL0L
aL0L
aL0L
aL0L
aL0L
aL0L
aL0L
aL0L
aL0L
aL3L
aL0L
aL3L
aL6L
aL0L
aL7L
aL7L
aL7L
aL7L
aL7L
aL0L
aL7L
aL0L
aL0L
aL3L
aL2L
aL2L
aL2L
aL3L
aL2L
aL3L
aL2L
aL2L
aL3L
aL2L
aL2L
aL3L
aL3L
aL2L
aL2L
aL3L
aL3L
aL3L
aL3L
aL2L
aL3L
aL3L
aL3L
aL2L
aL2L
aL1L
aL3L
aL3L
aL3L
aL0L
aL3L
aL3L
aL3L
aL3L
aL2L
aL2L
aL3L
aL0L
aL9L
aL9L
aL9L
aL9L
aL9L
aL9L
aL9L
aL9L
aL9L
aL9L
aL9L
aL9L
aa(lp204
L0L
aL0L
aL7L
aL7L
aL7L
aL6L
aL7L
aL6L
aL0L
aL7L
aL6L
aL7L
aL7L
aL7L
aL7L
aL6L
aL6L
aL6L
aL5L
aL6L
aL5L
aL5L
aL6L
aL6L
aL6L
aL6L
aL6L
aL0L
aL0L
aL0L
aL0L
aL0L
aL0L
aL0L
aL0L
aL0L
aL2L
aL0L
aL0L
aL0L
aL0L
aL0L
aL7L
aL0L
aL0L
aL0L
aL0L
aL0L
aL0L
aL0L
aL0L
aL0L
aL7L
aL0L
aL0L
aL0L
aL0L
aL0L
aL0L
aL0L
aL0L
aL0L
aL4L
aL4L
aL0L
aL4L
aL4L
aL4L
aL4L
aL4L
aL4L
aL4L
aL0L
aL4L
aL1L
aL4L
aL3L
aL0L
aL0L
aL1L
aL0L
aL1L
aL2L
aL0L
aL0L
aL0L
aL0L
aL9L
aL9L
aL9L
aL9L
aL9L
aL9L
aL9L
aL9L
aL9L
aL9L
aL9L
aL9L
aL9L
aL9L
aL9L
aL9L
aL9L
aL9L
aL9L
aL9L
aL9L
aL9L
aL9L
aL9L
aL9L
aa(lp205
L0L
aL0L
aL0L
aL0L
aL5L
aL5L
aL6L
aL6L
aL5L
aL5L
aL6L
aL5L
aL5L
aL5L
aL5L
aL5L
aL7L
aL6L
aL7L
aL6L
aL6L
aL6L
aL6L
aL6L
aL6L
aL6L
aL6L
aL6L
aL6L
aL0L
aL7L
aL0L
aL0L
aL7L
aL7L
aL7L
aL0L
aL7L
aL7L
aL0L
aL0L
aL0L
aL0L
aL0L
aL0L
aL0L
aL0L
aL0L
aL0L
aL0L
aL0L
aL3L
aL0L
aL0L
aL0L
aL0L
aL0L
aL0L
aL0L
aL3L
aL0L
aL3L
aL3L
aL3L
aL3L
aL3L
aL3L
aL3L
aL0L
aL3L
aL3L
aL0L
aL3L
aL3L
aL3L
aL0L
aL3L
aL3L
aL3L
aL3L
aL0L
aL3L
aL3L
aL0L
aL0L
aL0L
aL3L
aL3L
aL3L
aL3L
aL3L
aL1L
aL1L
aL0L
aL0L
aL9L
aL9L
aL9L
aL9L
aL9L
aL9L
aL9L
aL9L
aL9L
aL9L
aL9L
aL9L
aL9L
aL9L
aL9L
aL9L
aL9L
aa(lp206
L0L
aL5L
aL5L
aL5L
aL5L
aL5L
aL5L
aL5L
aL6L
aL5L
aL5L
aL6L
aL6L
aL5L
aL5L
aL5L
aL7L
aL7L
aL5L
aL0L
aL0L
aL6L
aL6L
aL5L
aL5L
aL7L
aL7L
aL5L
aL0L
aL7L
aL0L
aL7L
aL7L
aL0L
aL0L
aL0L
aL3L
aL3L
aL3L
aL3L
aL2L
aL0L
aL3L
aL3L
aL3L
aL3L
aL3L
aL3L
aL3L
aL3L
aL0L
aL3L
aL3L
aL3L
aL2L
aL3L
aL2L
aL3L
aL3L
aL3L
aL3L
aL3L
aL3L
aL3L
aL3L
aL3L
aL2L
aL3L
aL2L
aL3L
aL3L
aL3L
aL3L
aL2L
aL2L
aL3L
aL1L
aL3L
aL2L
aL3L
aL3L
aL3L
aL3L
aL3L
aL2L
aL3L
aL3L
aL2L
aL2L
aL2L
aL2L
aL2L
aL3L
aL3L
aL2L
aL0L
aL0L
aL0L
aL9L
aL9L
aL9L
aL9L
aL9L
aL9L
aL9L
aL9L
aL9L
aL9L
aL9L
aL9L
aL9L
aL9L
aa(lp207
L0L
aL0L
aL7L
aL7L
aL5L
aL6L
aL5L
aL6L
aL6L
aL5L
aL6L
aL0L
aL0L
aL0L
aL7L
aL7L
aL6L
aL7L
aL5L
aL5L
aL5L
aL5L
aL0L
aL5L
aL6L
aL7L
aL0L
aL0L
aL0L
aL0L
aL0L
aL0L
aL0L
aL0L
aL0L
aL0L
aL0L
aL0L
aL0L
aL0L
aL0L
aL0L
aL0L
aL0L
aL7L
aL7L
aL5L
aL7L
aL0L
aL0L
aL0L
aL3L
aL0L
aL0L
aL3L
aL3L
aL3L
aL3L
aL3L
aL0L
aL0L
aL3L
aL3L
aL3L
aL3L
aL0L
aL3L
aL0L
aL0L
aL3L
aL0L
aL3L
aL0L
aL0L
aL0L
aL0L
aL0L
aL0L
aL0L
aL0L
aL0L
aL0L
aL0L
aL0L
aL0L
aL0L
aL3L
aL1L
aL1L
aL3L
aL0L
aL9L
aL9L
aL9L
aL9L
aL9L
aL9L
aL9L
aL9L
aL9L
aL9L
aL9L
aL9L
aL9L
aL9L
aL9L
aL9L
aL9L
aL9L
aL9L
aL9L
aL9L
aa(lp208
L0L
aL0L
aL0L
aL0L
aL0L
aL7L
aL5L
aL6L
aL6L
aL5L
aL6L
aL5L
aL0L
aL0L
aL0L
aL0L
aL0L
aL0L
aL0L
aL0L
aL0L
aL0L
aL5L
aL0L
aL0L
aL0L
aL0L
aL7L
aL0L
aL0L
aL7L
aL1L
aL7L
aL3L
aL3L
aL0L
aL3L
aL0L
aL0L
aL0L
aL0L
aL0L
aL0L
aL2L
aL0L
aL1L
aL3L
aL3L
aL1L
aL0L
aL0L
aL2L
aL0L
aL1L
aL3L
aL0L
aL2L
aL0L
aL2L
aL1L
aL3L
aL0L
aL0L
aL3L
aL0L
aL1L
aL2L
aL1L
aL3L
aL2L
aL3L
aL2L
aL0L
aL3L
aL2L
aL3L
aL3L
aL3L
aL3L
aL3L
aL3L
aL3L
aL3L
aL3L
aL2L
aL3L
aL3L
aL0L
aL0L
aL0L
aL0L
aL1L
aL1L
aL1L
aL1L
aL2L
aL0L
aL0L
aL3L
aL0L
aL0L
aL0L
aL0L
aL9L
aL9L
aL9L
aL9L
aL9L
aL9L
aL9L
aL9L
aL9L
aa(lp209
L0L
aL0L
aL0L
aL0L
aL0L
aL6L
aL5L
aL6L
aL5L
aL5L
aL5L
aL5L
aL6L
aL5L
aL0L
aL0L
aL0L
aL0L
aL7L
aL0L
aL0L
aL6L
aL7L
aL5L
aL5L
aL7L
aL7L
aL0L
aL0L
aL0L
aL0L
aL0L
aL0L
aL0L
aL0L
aL0L
aL0L
aL0L
aL0L
aL0L
aL0L
aL0L
aL0L
aL0L
aL3L
aL0L
aL0L
aL0L
aL3L
aL0L
aL3L
aL3L
aL3L
aL3L
aL3L
aL3L
aL4L
aL4L
aL4L
aL3L
aL4L
aL4L
aL3L
aL3L
aL3L
aL3L
aL3L
aL3L
aL0L
aL3L
aL3L
aL3L
aL3L
aL3L
aL3L
aL2L
aL3L
aL3L
aL0L
aL0L
aL0L
aL3L
aL3L
aL3L
aL3L
aL3L
aL3L
aL3L
aL3L
aL3L
aL0L
aL0L
aL3L
aL0L
aL0L
aL0L
aL0L
aL0L
aL0L
aL9L
aL9L
aL9L
aL9L
aL9L
aL9L
aL9L
aL9L
aL9L
aL9L
aL9L
aL9L
aL9L
aa(lp210
L0L
aL0L
aL0L
aL0L
aL7L
aL7L
aL7L
aL7L
aL7L
aL6L
aL7L
aL6L
aL6L
aL6L
aL6L
aL6L
aL7L
aL7L
aL0L
aL0L
aL0L
aL0L
aL0L
aL0L
aL0L
aL0L
aL5L
aL0L
aL7L
aL6L
aL6L
aL3L
aL7L
aL6L
aL6L
aL6L
aL6L
aL6L
aL6L
aL6L
aL3L
aL6L
aL6L
aL3L
aL7L
aL7L
aL7L
aL7L
aL7L
aL3L
aL6L
aL3L
aL3L
aL3L
aL3L
aL3L
aL3L
aL7L
aL3L
aL7L
aL7L
aL7L
aL7L
aL7L
aL7L
aL3L
aL7L
aL3L
aL3L
aL3L
aL3L
aL3L
aL3L
aL7L
aL3L
aL7L
aL7L
aL7L
aL7L
aL7L
aL3L
aL3L
aL3L
aL3L
aL2L
aL2L
aL2L
aL2L
aL2L
aL3L
aL2L
aL2L
aL3L
aL3L
aL3L
aL3L
aL3L
aL3L
aL0L
aL0L
aL0L
aL0L
aL9L
aL9L
aL9L
aL9L
aL9L
aL9L
aL9L
aL9L
aL9L
aL9L
aa(lp211
L0L
aL0L
aL0L
aL0L
aL0L
aL0L
aL0L
aL0L
aL0L
aL0L
aL0L
aL0L
aL7L
aL0L
aL0L
aL5L
aL5L
aL5L
aL5L
aL9L
aL9L
aL9L
aL9L
aL9L
aL9L
aL9L
aL9L
aL9L
aL9L
aL9L
aL9L
aL9L
aL9L
aL9L
aL9L
aL9L
aL9L
aL9L
aL9L
aL9L
aL9L
aL9L
aL9L
aL9L
aL9L
aL9L
aL9L
aL9L
aL9L
aL9L
aL9L
aL9L
aL9L
aL9L
aL9L
aL9L
aL9L
aL9L
aL9L
aL9L
aL9L
aL9L
aL9L
aL9L
aL9L
aL9L
aL9L
aL9L
aL9L
aL9L
aL9L
aL9L
aL9L
aL9L
aL9L
aL9L
aL9L
aL9L
aL9L
aL9L
aL9L
aL9L
aL9L
aL9L
aL9L
aL9L
aL9L
aL9L
aL9L
aL9L
aL9L
aL9L
aL9L
aL9L
aL9L
aL9L
aL9L
aL9L
aL9L
aL9L
aL9L
aL9L
aL9L
aL9L
aL9L
aL9L
aL9L
aL9L
aL9L
aL9L
aL9L
aL9L
aa(lp212
L0L
aL0L
aL0L
aL0L
aL0L
aL0L
aL0L
aL0L
aL0L
aL0L
aL0L
aL0L
aL0L
aL0L
aL0L
aL6L
aL6L
aL6L
aL5L
aL5L
aL5L
aL5L
aL7L
aL6L
aL6L
aL6L
aL7L
aL0L
aL7L
aL5L
aL6L
aL5L
aL5L
aL0L
aL0L
aL0L
aL0L
aL0L
aL0L
aL0L
aL0L
aL5L
aL5L
aL0L
aL0L
aL0L
aL0L
aL0L
aL0L
aL0L
aL0L
aL0L
aL0L
aL0L
aL0L
aL0L
aL0L
aL0L
aL5L
aL0L
aL0L
aL0L
aL0L
aL0L
aL0L
aL3L
aL0L
aL3L
aL0L
aL2L
aL3L
aL3L
aL3L
aL3L
aL3L
aL3L
aL0L
aL3L
aL0L
aL0L
aL3L
aL3L
aL0L
aL3L
aL3L
aL3L
aL3L
aL3L
aL3L
aL3L
aL3L
aL2L
aL3L
aL1L
aL2L
aL2L
aL0L
aL0L
aL2L
aL1L
aL1L
aL9L
aL9L
aL9L
aL9L
aL9L
aL9L
aL9L
aL9L
aL9L
aL9L
aL9L
aa(lp213
L0L
aL7L
aL7L
aL7L
aL7L
aL0L
aL6L
aL7L
aL6L
aL5L
aL5L
aL5L
aL5L
aL5L
aL0L
aL0L
aL0L
aL0L
aL0L
aL0L
aL7L
aL0L
aL5L
aL5L
aL6L
aL5L
aL5L
aL0L
aL6L
aL5L
aL6L
aL0L
aL6L
aL7L
aL6L
aL6L
aL6L
aL5L
aL6L
aL6L
aL6L
aL0L
aL0L
aL0L
aL0L
aL0L
aL0L
aL0L
aL0L
aL0L
aL0L
aL0L
aL6L
aL0L
aL0L
aL0L
aL3L
aL2L
aL0L
aL2L
aL0L
aL0L
aL0L
aL0L
aL0L
aL3L
aL3L
aL0L
aL0L
aL0L
aL3L
aL0L
aL0L
aL3L
aL0L
aL2L
aL0L
aL0L
aL0L
aL0L
aL0L
aL0L
aL0L
aL2L
aL0L
aL0L
aL0L
aL0L
aL0L
aL0L
aL0L
aL0L
aL0L
aL1L
aL0L
aL0L
aL2L
aL0L
aL1L
aL3L
aL3L
aL1L
aL0L
aL2L
aL3L
aL2L
aL1L
aL2L
aL1L
aL1L
aL0L
aL0L
aa(lp214
L0L
aL0L
aL0L
aL0L
aL6L
aL0L
aL5L
aL5L
aL0L
aL0L
aL0L
aL0L
aL0L
aL0L
aL0L
aL7L
aL5L
aL5L
aL6L
aL5L
aL6L
aL7L
aL7L
aL7L
aL7L
aL7L
aL5L
aL5L
aL5L
aL0L
aL0L
aL0L
aL0L
aL0L
aL0L
aL7L
aL5L
aL0L
aL5L
aL0L
aL6L
aL6L
aL0L
aL7L
aL7L
aL7L
aL7L
aL6L
aL7L
aL7L
aL3L
aL3L
aL0L
aL0L
aL3L
aL2L
aL3L
aL3L
aL3L
aL3L
aL2L
aL0L
aL3L
aL3L
aL0L
aL3L
aL0L
aL0L
aL0L
aL0L
aL3L
aL0L
aL0L
aL1L
aL3L
aL3L
aL0L
aL0L
aL0L
aL3L
aL3L
aL3L
aL2L
aL2L
aL3L
aL3L
aL1L
aL3L
aL2L
aL2L
aL0L
aL0L
aL0L
aL3L
aL0L
aL0L
aL0L
aL0L
aL0L
aL0L
aL0L
aL9L
aL9L
aL9L
aL9L
aL9L
aL9L
aL9L
aL9L
aL9L
aL9L
aL9L
aa(lp215
L0L
aL0L
aL0L
aL0L
aL0L
aL7L
aL3L
aL7L
aL7L
aL3L
aL0L
aL0L
aL0L
aL0L
aL0L
aL0L
aL0L
aL3L
aL3L
aL3L
aL0L
aL0L
aL3L
aL3L
aL3L
aL0L
aL3L
aL1L
aL7L
aL2L
aL1L
aL1L
aL7L
aL1L
aL1L
aL7L
aL2L
aL3L
aL3L
aL0L
aL3L
aL0L
aL0L
aL3L
aL0L
aL0L
aL0L
aL1L
aL3L
aL3L
aL3L
aL1L
aL3L
aL2L
aL2L
aL3L
aL1L
aL1L
aL1L
aL1L
aL1L
aL1L
aL0L
aL2L
aL1L
aL3L
aL2L
aL0L
aL0L
aL0L
aL9L
aL9L
aL9L
aL9L
aL9L
aL9L
aL9L
aL9L
aL9L
aL9L
aL9L
aL9L
aL9L
aL9L
aL9L
aL9L
aL9L
aL9L
aL9L
aL9L
aL9L
aL9L
aL9L
aL9L
aL9L
aL9L
aL9L
aL9L
aL9L
aL9L
aL9L
aL9L
aL9L
aL9L
aL9L
aL9L
aL9L
aL9L
aL9L
aL9L
aL9L
aL9L
aa(lp216
L0L
aL0L
aL0L
aL0L
aL7L
aL7L
aL7L
aL5L
aL5L
aL6L
aL5L
aL5L
aL5L
aL5L
aL7L
aL0L
aL5L
aL0L
aL0L
aL0L
aL5L
aL0L
aL6L
aL6L
aL0L
aL5L
aL6L
aL5L
aL5L
aL0L
aL0L
aL7L
aL7L
aL7L
aL0L
aL0L
aL3L
aL3L
aL0L
aL2L
aL3L
aL3L
aL3L
aL3L
aL3L
aL3L
aL3L
aL3L
aL3L
aL3L
aL3L
aL3L
aL3L
aL2L
aL3L
aL2L
aL3L
aL3L
aL2L
aL3L
aL2L
aL3L
aL3L
aL2L
aL2L
aL3L
aL2L
aL3L
aL2L
aL2L
aL3L
aL3L
aL2L
aL3L
aL3L
aL3L
aL3L
aL3L
aL3L
aL1L
aL2L
aL2L
aL0L
aL9L
aL9L
aL9L
aL9L
aL9L
aL9L
aL9L
aL9L
aL9L
aL9L
aL9L
aL9L
aL9L
aL9L
aL9L
aL9L
aL9L
aL9L
aL9L
aL9L
aL9L
aL9L
aL9L
aL9L
aL9L
aL9L
aL9L
aL9L
aL9L
aa(lp217
L0L
aL0L
aL0L
aL0L
aL7L
aL5L
aL6L
aL5L
aL5L
aL5L
aL5L
aL6L
aL5L
aL5L
aL7L
aL0L
aL6L
aL0L
aL5L
aL3L
aL3L
aL3L
aL2L
aL0L
aL3L
aL1L
aL3L
aL3L
aL3L
aL0L
aL0L
aL3L
aL2L
aL3L
aL3L
aL2L
aL3L
aL3L
aL3L
aL1L
aL0L
aL3L
aL1L
aL3L
aL2L
aL3L
aL3L
aL0L
aL3L
aL3L
aL3L
aL3L
aL3L
aL3L
aL3L
aL0L
aL3L
aL3L
aL3L
aL3L
aL2L
aL3L
aL2L
aL3L
aL3L
aL2L
aL3L
aL3L
aL3L
aL3L
aL3L
aL3L
aL3L
aL3L
aL3L
aL3L
aL2L
aL3L
aL1L
aL1L
aL1L
aL1L
aL1L
aL1L
aL1L
aL1L
aL1L
aL9L
aL9L
aL9L
aL9L
aL9L
aL9L
aL9L
aL9L
aL9L
aL9L
aL9L
aL9L
aL9L
aL9L
aL9L
aL9L
aL9L
aL9L
aL9L
aL9L
aL9L
aL9L
aL9L
aL9L
aL9L
aa(lp218
L0L
aL0L
aL0L
aL0L
aL0L
aL0L
aL7L
aL5L
aL5L
aL5L
aL5L
aL5L
aL5L
aL5L
aL7L
aL0L
aL5L
aL3L
aL0L
aL0L
aL0L
aL0L
aL0L
aL0L
aL5L
aL3L
aL6L
aL7L
aL0L
aL0L
aL6L
aL0L
aL7L
aL2L
aL2L
aL0L
aL7L
aL3L
aL3L
aL2L
aL3L
aL2L
aL3L
aL3L
aL3L
aL3L
aL3L
aL3L
aL3L
aL3L
aL3L
aL3L
aL3L
aL1L
aL3L
aL0L
aL0L
aL0L
aL2L
aL2L
aL3L
aL1L
aL3L
aL2L
aL1L
aL2L
aL2L
aL3L
aL3L
aL2L
aL3L
aL2L
aL3L
aL3L
aL3L
aL2L
aL2L
aL3L
aL0L
aL2L
aL0L
aL0L
aL0L
aL0L
aL9L
aL9L
aL9L
aL9L
aL9L
aL9L
aL9L
aL9L
aL9L
aL9L
aL9L
aL9L
aL9L
aL9L
aL9L
aL9L
aL9L
aL9L
aL9L
aL9L
aL9L
aL9L
aL9L
aL9L
aL9L
aL9L
aL9L
aL9L
aa(lp219
L0L
aL0L
aL0L
aL0L
aL0L
aL0L
aL0L
aL5L
aL0L
aL0L
aL5L
aL6L
aL5L
aL6L
aL5L
aL7L
aL6L
aL5L
aL6L
aL6L
aL6L
aL7L
aL6L
aL5L
aL6L
aL5L
aL7L
aL2L
aL3L
aL0L
aL0L
aL3L
aL3L
aL0L
aL0L
aL3L
aL2L
aL2L
aL2L
aL2L
aL3L
aL3L
aL2L
aL3L
aL3L
aL3L
aL2L
aL2L
aL2L
aL3L
aL3L
aL3L
aL2L
aL2L
aL2L
aL2L
aL3L
aL3L
aL2L
aL1L
aL2L
aL2L
aL1L
aL2L
aL1L
aL3L
aL2L
aL3L
aL2L
aL3L
aL3L
aL2L
aL3L
aL3L
aL3L
aL3L
aL3L
aL3L
aL3L
aL0L
aL0L
aL3L
aL3L
aL3L
aL2L
aL3L
aL2L
aL3L
aL3L
aL0L
aL0L
aL0L
aL9L
aL9L
aL9L
aL9L
aL9L
aL9L
aL9L
aL9L
aL9L
aL9L
aL9L
aL9L
aL9L
aL9L
aL9L
aL9L
aL9L
aL9L
aL9L
aL9L
aa(lp220
L0L
aL0L
aL0L
aL6L
aL6L
aL5L
aL5L
aL5L
aL5L
aL5L
aL5L
aL5L
aL5L
aL6L
aL5L
aL3L
aL0L
aL6L
aL6L
aL6L
aL0L
aL7L
aL0L
aL6L
aL6L
aL5L
aL6L
aL0L
aL0L
aL0L
aL0L
aL0L
aL0L
aL3L
aL3L
aL0L
aL3L
aL3L
aL0L
aL0L
aL0L
aL1L
aL0L
aL0L
aL0L
aL0L
aL0L
aL0L
aL7L
aL0L
aL0L
aL0L
aL7L
aL7L
aL3L
aL3L
aL3L
aL3L
aL3L
aL2L
aL3L
aL3L
aL3L
aL3L
aL3L
aL3L
aL3L
aL3L
aL3L
aL3L
aL3L
aL3L
aL3L
aL3L
aL3L
aL3L
aL3L
aL3L
aL3L
aL3L
aL3L
aL3L
aL3L
aL3L
aL3L
aL3L
aL3L
aL3L
aL1L
aL3L
aL3L
aL3L
aL3L
aL3L
aL3L
aL0L
aL0L
aL9L
aL9L
aL9L
aL9L
aL9L
aL9L
aL9L
aL9L
aL9L
aL9L
aL9L
aL9L
aL9L
aL9L
aL9L
aa(lp221
L0L
aL0L
aL7L
aL5L
aL7L
aL5L
aL5L
aL7L
aL6L
aL6L
aL5L
aL0L
aL0L
aL0L
aL0L
aL0L
aL7L
aL0L
aL7L
aL7L
aL5L
aL0L
aL7L
aL7L
aL7L
aL7L
aL6L
aL7L
aL6L
aL0L
aL0L
aL0L
aL0L
aL0L
aL0L
aL0L
aL0L
aL0L
aL0L
aL0L
aL0L
aL0L
aL0L
aL3L
aL3L
aL0L
aL0L
aL0L
aL3L
aL3L
aL3L
aL3L
aL3L
aL3L
aL3L
aL3L
aL3L
aL2L
aL1L
aL3L
aL3L
aL3L
aL3L
aL3L
aL0L
aL3L
aL3L
aL3L
aL3L
aL3L
aL3L
aL2L
aL4L
aL4L
aL4L
aL3L
aL2L
aL2L
aL1L
aL2L
aL1L
aL1L
aL2L
aL1L
aL1L
aL1L
aL2L
aL2L
aL1L
aL2L
aL1L
aL2L
aL3L
aL3L
aL2L
aL0L
aL0L
aL9L
aL9L
aL9L
aL9L
aL9L
aL9L
aL9L
aL9L
aL9L
aL9L
aL9L
aL9L
aL9L
aL9L
aL9L
aa(lp222
L0L
aL0L
aL0L
aL7L
aL5L
aL6L
aL5L
aL6L
aL5L
aL5L
aL6L
aL6L
aL7L
aL5L
aL0L
aL0L
aL0L
aL6L
aL0L
aL5L
aL6L
aL6L
aL6L
aL6L
aL5L
aL6L
aL5L
aL6L
aL6L
aL6L
aL6L
aL6L
aL6L
aL5L
aL6L
aL5L
aL6L
aL6L
aL5L
aL6L
aL6L
aL5L
aL0L
aL5L
aL5L
aL0L
aL2L
aL0L
aL0L
aL0L
aL0L
aL3L
aL3L
aL0L
aL3L
aL2L
aL2L
aL1L
aL2L
aL2L
aL2L
aL2L
aL1L
aL2L
aL2L
aL2L
aL2L
aL2L
aL2L
aL2L
aL1L
aL3L
aL2L
aL2L
aL2L
aL2L
aL1L
aL2L
aL2L
aL0L
aL2L
aL1L
aL2L
aL1L
aL3L
aL3L
aL2L
aL3L
aL3L
aL3L
aL3L
aL3L
aL3L
aL2L
aL2L
aL2L
aL2L
aL3L
aL3L
aL1L
aL3L
aL2L
aL2L
aL3L
aL2L
aL0L
aL0L
aL9L
aL9L
aL9L
aL9L
aL9L
aa(lp223
L0L
aL7L
aL7L
aL6L
aL7L
aL6L
aL5L
aL5L
aL5L
aL6L
aL6L
aL6L
aL6L
aL6L
aL6L
aL6L
aL6L
aL6L
aL5L
aL5L
aL5L
aL5L
aL5L
aL5L
aL6L
aL7L
aL7L
aL7L
aL7L
aL7L
aL7L
aL6L
aL6L
aL6L
aL5L
aL7L
aL6L
aL3L
aL0L
aL0L
aL0L
aL0L
aL0L
aL0L
aL0L
aL7L
aL0L
aL7L
aL6L
aL3L
aL6L
aL7L
aL7L
aL6L
aL5L
aL7L
aL3L
aL7L
aL3L
aL3L
aL3L
aL2L
aL3L
aL3L
aL3L
aL3L
aL3L
aL3L
aL0L
aL0L
aL3L
aL3L
aL3L
aL3L
aL3L
aL3L
aL1L
aL3L
aL3L
aL3L
aL3L
aL3L
aL3L
aL3L
aL3L
aL3L
aL3L
aL3L
aL2L
aL0L
aL3L
aL3L
aL3L
aL1L
aL1L
aL3L
aL0L
aL0L
aL9L
aL9L
aL9L
aL9L
aL9L
aL9L
aL9L
aL9L
aL9L
aL9L
aL9L
aL9L
aL9L
aL9L
aa(lp224
L0L
aL0L
aL0L
aL0L
aL0L
aL0L
aL5L
aL5L
aL5L
aL0L
aL0L
aL0L
aL0L
aL0L
aL5L
aL5L
aL5L
aL5L
aL5L
aL5L
aL7L
aL6L
aL0L
aL0L
aL0L
aL3L
aL0L
aL0L
aL3L
aL1L
aL1L
aL0L
aL2L
aL3L
aL2L
aL1L
aL2L
aL0L
aL1L
aL2L
aL3L
aL1L
aL3L
aL3L
aL1L
aL3L
aL3L
aL3L
aL3L
aL0L
aL0L
aL3L
aL0L
aL3L
aL3L
aL3L
aL3L
aL3L
aL1L
aL0L
aL0L
aL0L
aL0L
aL9L
aL9L
aL9L
aL9L
aL9L
aL9L
aL9L
aL9L
aL9L
aL9L
aL9L
aL9L
aL9L
aL9L
aL9L
aL9L
aL9L
aL9L
aL9L
aL9L
aL9L
aL9L
aL9L
aL9L
aL9L
aL9L
aL9L
aL9L
aL9L
aL9L
aL9L
aL9L
aL9L
aL9L
aL9L
aL9L
aL9L
aL9L
aL9L
aL9L
aL9L
aL9L
aL9L
aL9L
aL9L
aL9L
aL9L
aL9L
aL9L
aa(lp225
L0L
aL0L
aL0L
aL0L
aL0L
aL7L
aL0L
aL7L
aL7L
aL5L
aL7L
aL5L
aL6L
aL7L
aL7L
aL0L
aL0L
aL0L
aL0L
aL0L
aL0L
aL0L
aL6L
aL0L
aL6L
aL5L
aL0L
aL7L
aL0L
aL0L
aL0L
aL0L
aL0L
aL7L
aL2L
aL0L
aL0L
aL0L
aL0L
aL3L
aL0L
aL3L
aL0L
aL0L
aL3L
aL3L
aL4L
aL0L
aL3L
aL3L
aL3L
aL3L
aL3L
aL3L
aL4L
aL3L
aL1L
aL4L
aL3L
aL4L
aL3L
aL1L
aL3L
aL1L
aL1L
aL1L
aL1L
aL3L
aL3L
aL2L
aL3L
aL0L
aL0L
aL0L
aL3L
aL3L
aL0L
aL2L
aL0L
aL0L
aL2L
aL0L
aL0L
aL0L
aL0L
aL9L
aL9L
aL9L
aL9L
aL9L
aL9L
aL9L
aL9L
aL9L
aL9L
aL9L
aL9L
aL9L
aL9L
aL9L
aL9L
aL9L
aL9L
aL9L
aL9L
aL9L
aL9L
aL9L
aL9L
aL9L
aL9L
aL9L
aa(lp226
L0L
aL0L
aL0L
aL7L
aL7L
aL7L
aL7L
aL7L
aL6L
aL5L
aL6L
aL6L
aL5L
aL5L
aL5L
aL7L
aL0L
aL0L
aL0L
aL0L
aL0L
aL0L
aL0L
aL0L
aL0L
aL7L
aL5L
aL0L
aL6L
aL6L
aL5L
aL0L
aL7L
aL7L
aL6L
aL6L
aL6L
aL7L
aL0L
aL6L
aL6L
aL6L
aL6L
aL7L
aL5L
aL3L
aL3L
aL0L
aL3L
aL0L
aL0L
aL5L
aL3L
aL0L
aL0L
aL3L
aL3L
aL3L
aL3L
aL7L
aL0L
aL0L
aL0L
aL2L
aL3L
aL3L
aL3L
aL1L
aL2L
aL2L
aL3L
aL3L
aL2L
aL3L
aL2L
aL3L
aL3L
aL3L
aL2L
aL2L
aL2L
aL0L
aL0L
aL0L
aL0L
aL0L
aL0L
aL3L
aL0L
aL0L
aL0L
aL0L
aL3L
aL2L
aL2L
aL1L
aL3L
aL0L
aL0L
aL0L
aL0L
aL9L
aL9L
aL9L
aL9L
aL9L
aL9L
aL9L
aL9L
aL9L
aL9L
aL9L
aa(lp227
L0L
aL0L
aL0L
aL7L
aL0L
aL7L
aL5L
aL7L
aL6L
aL5L
aL5L
aL0L
aL0L
aL7L
aL5L
aL0L
aL5L
aL5L
aL5L
aL5L
aL5L
aL6L
aL7L
aL7L
aL6L
aL6L
aL7L
aL6L
aL6L
aL7L
aL6L
aL6L
aL5L
aL5L
aL5L
aL5L
aL6L
aL6L
aL3L
aL6L
aL6L
aL7L
aL6L
aL6L
aL7L
aL6L
aL6L
aL6L
aL3L
aL0L
aL6L
aL3L
aL3L
aL3L
aL3L
aL3L
aL3L
aL3L
aL3L
aL3L
aL3L
aL3L
aL3L
aL3L
aL3L
aL3L
aL3L
aL3L
aL3L
aL3L
aL3L
aL3L
aL3L
aL3L
aL3L
aL0L
aL3L
aL3L
aL3L
aL3L
aL3L
aL3L
aL3L
aL3L
aL1L
aL3L
aL3L
aL3L
aL0L
aL0L
aL9L
aL9L
aL9L
aL9L
aL9L
aL9L
aL9L
aL9L
aL9L
aL9L
aL9L
aL9L
aL9L
aL9L
aL9L
aL9L
aL9L
aL9L
aL9L
aL9L
aL9L
aL9L
aa(lp228
L0L
aL0L
aL0L
aL0L
aL0L
aL0L
aL0L
aL0L
aL2L
aL3L
aL0L
aL0L
aL0L
aL3L
aL0L
aL3L
aL3L
aL0L
aL0L
aL0L
aL0L
aL5L
aL5L
aL0L
aL7L
aL3L
aL0L
aL0L
aL0L
aL1L
aL0L
aL2L
aL0L
aL3L
aL3L
aL0L
aL3L
aL0L
aL3L
aL3L
aL3L
aL0L
aL3L
aL1L
aL1L
aL3L
aL3L
aL3L
aL7L
aL7L
aL7L
aL7L
aL4L
aL0L
aL7L
aL7L
aL0L
aL4L
aL0L
aL0L
aL0L
aL0L
aL0L
aL0L
aL0L
aL0L
aL0L
aL0L
aL0L
aL0L
aL0L
aL0L
aL0L
aL0L
aL0L
aL0L
aL0L
aL0L
aL0L
aL0L
aL3L
aL3L
aL1L
aL1L
aL1L
aL3L
aL3L
aL0L
aL0L
aL9L
aL9L
aL9L
aL9L
aL9L
aL9L
aL9L
aL9L
aL9L
aL9L
aL9L
aL9L
aL9L
aL9L
aL9L
aL9L
aL9L
aL9L
aL9L
aL9L
aL9L
aL9L
aL9L
aa(lp229
L0L
aL0L
aL0L
aL0L
aL5L
aL7L
aL5L
aL5L
aL5L
aL7L
aL5L
aL5L
aL5L
aL5L
aL5L
aL5L
aL5L
aL5L
aL5L
aL5L
aL5L
aL5L
aL5L
aL6L
aL5L
aL5L
aL5L
aL9L
aL9L
aL9L
aL9L
aL9L
aL9L
aL9L
aL9L
aL9L
aL9L
aL9L
aL9L
aL9L
aL9L
aL9L
aL9L
aL9L
aL9L
aL9L
aL9L
aL9L
aL9L
aL9L
aL9L
aL9L
aL9L
aL9L
aL9L
aL9L
aL9L
aL9L
aL9L
aL9L
aL9L
aL9L
aL9L
aL9L
aL9L
aL9L
aL9L
aL9L
aL9L
aL9L
aL9L
aL9L
aL9L
aL9L
aL9L
aL9L
aL9L
aL9L
aL9L
aL9L
aL9L
aL9L
aL9L
aL9L
aL9L
aL9L
aL9L
aL9L
aL9L
aL9L
aL9L
aL9L
aL9L
aL9L
aL9L
aL9L
aL9L
aL9L
aL9L
aL9L
aL9L
aL9L
aL9L
aL9L
aL9L
aL9L
aL9L
aL9L
aL9L
aL9L
aL9L
aL9L
aa(lp230
L0L
aL0L
aL0L
aL0L
aL6L
aL0L
aL0L
aL0L
aL0L
aL0L
aL0L
aL0L
aL1L
aL0L
aL6L
aL3L
aL3L
aL3L
aL3L
aL3L
aL0L
aL0L
aL0L
aL0L
aL0L
aL0L
aL3L
aL1L
aL0L
aL0L
aL3L
aL3L
aL1L
aL3L
aL1L
aL1L
aL4L
aL3L
aL4L
aL4L
aL4L
aL4L
aL4L
aL4L
aL4L
aL4L
aL4L
aL7L
aL4L
aL4L
aL4L
aL4L
aL4L
aL4L
aL4L
aL4L
aL4L
aL4L
aL0L
aL0L
aL0L
aL0L
aL1L
aL1L
aL0L
aL0L
aL1L
aL2L
aL1L
aL1L
aL1L
aL9L
aL9L
aL9L
aL9L
aL9L
aL9L
aL9L
aL9L
aL9L
aL9L
aL9L
aL9L
aL9L
aL9L
aL9L
aL9L
aL9L
aL9L
aL9L
aL9L
aL9L
aL9L
aL9L
aL9L
aL9L
aL9L
aL9L
aL9L
aL9L
aL9L
aL9L
aL9L
aL9L
aL9L
aL9L
aL9L
aL9L
aL9L
aL9L
aL9L
aL9L
aa(lp231
L0L
aL0L
aL0L
aL0L
aL0L
aL7L
aL7L
aL7L
aL7L
aL0L
aL7L
aL7L
aL7L
aL7L
aL5L
aL0L
aL0L
aL0L
aL5L
aL6L
aL5L
aL5L
aL6L
aL5L
aL5L
aL5L
aL7L
aL7L
aL0L
aL0L
aL0L
aL3L
aL0L
aL0L
aL0L
aL0L
aL3L
aL0L
aL0L
aL3L
aL0L
aL3L
aL0L
aL0L
aL0L
aL3L
aL3L
aL3L
aL3L
aL3L
aL3L
aL3L
aL4L
aL4L
aL4L
aL4L
aL4L
aL4L
aL4L
aL4L
aL4L
aL4L
aL4L
aL4L
aL4L
aL4L
aL4L
aL4L
aL4L
aL4L
aL4L
aL4L
aL4L
aL4L
aL2L
aL3L
aL3L
aL3L
aL3L
aL3L
aL3L
aL3L
aL3L
aL2L
aL3L
aL0L
aL0L
aL9L
aL9L
aL9L
aL9L
aL9L
aL9L
aL9L
aL9L
aL9L
aL9L
aL9L
aL9L
aL9L
aL9L
aL9L
aL9L
aL9L
aL9L
aL9L
aL9L
aL9L
aL9L
aL9L
aL9L
aL9L
aa(lp232
L0L
aL0L
aL0L
aL0L
aL6L
aL0L
aL0L
aL0L
aL5L
aL0L
aL0L
aL7L
aL0L
aL0L
aL0L
aL0L
aL7L
aL0L
aL7L
aL6L
aL5L
aL6L
aL0L
aL7L
aL7L
aL6L
aL5L
aL7L
aL0L
aL0L
aL0L
aL0L
aL0L
aL0L
aL3L
aL0L
aL0L
aL0L
aL0L
aL0L
aL3L
aL0L
aL3L
aL2L
aL7L
aL3L
aL7L
aL3L
aL5L
aL3L
aL2L
aL3L
aL3L
aL2L
aL3L
aL2L
aL2L
aL1L
aL3L
aL2L
aL3L
aL3L
aL3L
aL3L
aL3L
aL3L
aL2L
aL1L
aL0L
aL0L
aL0L
aL0L
aL0L
aL0L
aL3L
aL3L
aL3L
aL2L
aL3L
aL1L
aL0L
aL0L
aL0L
aL0L
aL0L
aL0L
aL9L
aL9L
aL9L
aL9L
aL9L
aL9L
aL9L
aL9L
aL9L
aL9L
aL9L
aL9L
aL9L
aL9L
aL9L
aL9L
aL9L
aL9L
aL9L
aL9L
aL9L
aL9L
aL9L
aL9L
aL9L
aL9L
aa(lp233
L0L
aL7L
aL7L
aL7L
aL7L
aL6L
aL6L
aL6L
aL5L
aL6L
aL6L
aL5L
aL7L
aL6L
aL5L
aL5L
aL5L
aL5L
aL5L
aL5L
aL7L
aL7L
aL6L
aL6L
aL7L
aL7L
aL7L
aL6L
aL6L
aL7L
aL7L
aL5L
aL5L
aL5L
aL0L
aL0L
aL0L
aL0L
aL6L
aL7L
aL5L
aL7L
aL7L
aL6L
aL7L
aL7L
aL6L
aL6L
aL6L
aL7L
aL6L
aL6L
aL7L
aL7L
aL7L
aL7L
aL7L
aL7L
aL3L
aL3L
aL3L
aL3L
aL3L
aL3L
aL3L
aL3L
aL3L
aL3L
aL3L
aL3L
aL3L
aL3L
aL7L
aL3L
aL3L
aL3L
aL3L
aL3L
aL3L
aL3L
aL3L
aL3L
aL3L
aL3L
aL3L
aL1L
aL3L
aL2L
aL3L
aL3L
aL3L
aL3L
aL3L
aL3L
aL3L
aL3L
aL0L
aL0L
aL9L
aL9L
aL9L
aL9L
aL9L
aL9L
aL9L
aL9L
aL9L
aL9L
aL9L
aL9L
aL9L
aL9L
aa(lp234
L0L
aL0L
aL7L
aL7L
aL7L
aL7L
aL7L
aL7L
aL6L
aL6L
aL6L
aL5L
aL6L
aL5L
aL5L
aL6L
aL5L
aL5L
aL6L
aL5L
aL5L
aL6L
aL6L
aL5L
aL5L
aL5L
aL9L
aL9L
aL9L
aL9L
aL9L
aL9L
aL9L
aL9L
aL9L
aL9L
aL9L
aL9L
aL9L
aL9L
aL9L
aL9L
aL9L
aL9L
aL9L
aL9L
aL9L
aL9L
aL9L
aL9L
aL9L
aL9L
aL9L
aL9L
aL9L
aL9L
aL9L
aL9L
aL9L
aL9L
aL9L
aL9L
aL9L
aL9L
aL9L
aL9L
aL9L
aL9L
aL9L
aL9L
aL9L
aL9L
aL9L
aL9L
aL9L
aL9L
aL9L
aL9L
aL9L
aL9L
aL9L
aL9L
aL9L
aL9L
aL9L
aL9L
aL9L
aL9L
aL9L
aL9L
aL9L
aL9L
aL9L
aL9L
aL9L
aL9L
aL9L
aL9L
aL9L
aL9L
aL9L
aL9L
aL9L
aL9L
aL9L
aL9L
aL9L
aL9L
aL9L
aL9L
aL9L
aL9L
aa(lp235
L0L
aL0L
aL0L
aL0L
aL0L
aL0L
aL0L
aL0L
aL0L
aL0L
aL6L
aL5L
aL5L
aL5L
aL5L
aL6L
aL5L
aL5L
aL5L
aL0L
aL6L
aL5L
aL5L
aL9L
aL9L
aL9L
aL9L
aL9L
aL9L
aL9L
aL9L
aL9L
aL9L
aL9L
aL9L
aL9L
aL9L
aL9L
aL9L
aL9L
aL9L
aL9L
aL9L
aL9L
aL9L
aL9L
aL9L
aL9L
aL9L
aL9L
aL9L
aL9L
aL9L
aL9L
aL9L
aL9L
aL9L
aL9L
aL9L
aL9L
aL9L
aL9L
aL9L
aL9L
aL9L
aL9L
aL9L
aL9L
aL9L
aL9L
aL9L
aL9L
aL9L
aL9L
aL9L
aL9L
aL9L
aL9L
aL9L
aL9L
aL9L
aL9L
aL9L
aL9L
aL9L
aL9L
aL9L
aL9L
aL9L
aL9L
aL9L
aL9L
aL9L
aL9L
aL9L
aL9L
aL9L
aL9L
aL9L
aL9L
aL9L
aL9L
aL9L
aL9L
aL9L
aL9L
aL9L
aL9L
aL9L
aL9L
aL9L
aL9L
aa(lp236
L0L
aL0L
aL0L
aL0L
aL0L
aL0L
aL0L
aL0L
aL0L
aL0L
aL0L
aL0L
aL0L
aL7L
aL7L
aL0L
aL7L
aL7L
aL7L
aL0L
aL0L
aL3L
aL0L
aL0L
aL0L
aL0L
aL0L
aL0L
aL0L
aL0L
aL0L
aL0L
aL0L
aL0L
aL0L
aL0L
aL0L
aL0L
aL0L
aL0L
aL1L
aL0L
aL1L
aL0L
aL0L
aL0L
aL0L
aL1L
aL0L
aL0L
aL1L
aL0L
aL0L
aL0L
aL9L
aL9L
aL9L
aL9L
aL9L
aL9L
aL9L
aL9L
aL9L
aL9L
aL9L
aL9L
aL9L
aL9L
aL9L
aL9L
aL9L
aL9L
aL9L
aL9L
aL9L
aL9L
aL9L
aL9L
aL9L
aL9L
aL9L
aL9L
aL9L
aL9L
aL9L
aL9L
aL9L
aL9L
aL9L
aL9L
aL9L
aL9L
aL9L
aL9L
aL9L
aL9L
aL9L
aL9L
aL9L
aL9L
aL9L
aL9L
aL9L
aL9L
aL9L
aL9L
aL9L
aL9L
aL9L
aL9L
aL9L
aL9L
aa(lp237
L0L
aL0L
aL0L
aL7L
aL7L
aL7L
aL7L
aL0L
aL7L
aL7L
aL7L
aL7L
aL7L
aL0L
aL7L
aL0L
aL0L
aL0L
aL5L
aL6L
aL6L
aL6L
aL5L
aL9L
aL9L
aL9L
aL9L
aL9L
aL9L
aL9L
aL9L
aL9L
aL9L
aL9L
aL9L
aL9L
aL9L
aL9L
aL9L
aL9L
aL9L
aL9L
aL9L
aL9L
aL9L
aL9L
aL9L
aL9L
aL9L
aL9L
aL9L
aL9L
aL9L
aL9L
aL9L
aL9L
aL9L
aL9L
aL9L
aL9L
aL9L
aL9L
aL9L
aL9L
aL9L
aL9L
aL9L
aL9L
aL9L
aL9L
aL9L
aL9L
aL9L
aL9L
aL9L
aL9L
aL9L
aL9L
aL9L
aL9L
aL9L
aL9L
aL9L
aL9L
aL9L
aL9L
aL9L
aL9L
aL9L
aL9L
aL9L
aL9L
aL9L
aL9L
aL9L
aL9L
aL9L
aL9L
aL9L
aL9L
aL9L
aL9L
aL9L
aL9L
aL9L
aL9L
aL9L
aL9L
aL9L
aL9L
aL9L
aL9L
aa(lp238
L0L
aL0L
aL0L
aL7L
aL0L
aL0L
aL7L
aL0L
aL6L
aL7L
aL7L
aL6L
aL0L
aL5L
aL5L
aL7L
aL6L
aL6L
aL7L
aL5L
aL7L
aL5L
aL0L
aL0L
aL0L
aL0L
aL0L
aL0L
aL0L
aL0L
aL0L
aL0L
aL0L
aL0L
aL7L
aL7L
aL0L
aL7L
aL5L
aL6L
aL7L
aL6L
aL7L
aL6L
aL7L
aL7L
aL7L
aL2L
aL3L
aL2L
aL3L
aL3L
aL2L
aL3L
aL3L
aL3L
aL3L
aL3L
aL3L
aL3L
aL3L
aL3L
aL3L
aL3L
aL3L
aL3L
aL0L
aL3L
aL2L
aL0L
aL3L
aL2L
aL2L
aL1L
aL1L
aL1L
aL9L
aL9L
aL9L
aL9L
aL9L
aL9L
aL9L
aL9L
aL9L
aL9L
aL9L
aL9L
aL9L
aL9L
aL9L
aL9L
aL9L
aL9L
aL9L
aL9L
aL9L
aL9L
aL9L
aL9L
aL9L
aL9L
aL9L
aL9L
aL9L
aL9L
aL9L
aL9L
aL9L
aL9L
aL9L
aL9L
aa(lp239
L0L
aL0L
aL0L
aL0L
aL0L
aL0L
aL0L
aL7L
aL7L
aL7L
aL0L
aL5L
aL6L
aL7L
aL7L
aL7L
aL7L
aL0L
aL0L
aL0L
aL0L
aL0L
aL0L
aL0L
aL0L
aL0L
aL0L
aL0L
aL0L
aL0L
aL0L
aL0L
aL7L
aL3L
aL6L
aL5L
aL5L
aL5L
aL6L
aL6L
aL5L
aL5L
aL6L
aL6L
aL6L
aL7L
aL5L
aL7L
aL3L
aL7L
aL3L
aL3L
aL3L
aL3L
aL3L
aL3L
aL3L
aL3L
aL3L
aL3L
aL0L
aL0L
aL3L
aL0L
aL0L
aL0L
aL3L
aL0L
aL0L
aL0L
aL3L
aL0L
aL0L
aL0L
aL0L
aL3L
aL0L
aL3L
aL3L
aL2L
aL1L
aL2L
aL2L
aL2L
aL9L
aL9L
aL9L
aL9L
aL9L
aL9L
aL9L
aL9L
aL9L
aL9L
aL9L
aL9L
aL9L
aL9L
aL9L
aL9L
aL9L
aL9L
aL9L
aL9L
aL9L
aL9L
aL9L
aL9L
aL9L
aL9L
aL9L
aL9L
aa(lp240
L0L
aL0L
aL0L
aL0L
aL0L
aL0L
aL0L
aL0L
aL0L
aL0L
aL7L
aL5L
aL6L
aL5L
aL6L
aL5L
aL5L
aL6L
aL6L
aL7L
aL0L
aL7L
aL0L
aL0L
aL9L
aL9L
aL9L
aL9L
aL9L
aL9L
aL9L
aL9L
aL9L
aL9L
aL9L
aL9L
aL9L
aL9L
aL9L
aL9L
aL9L
aL9L
aL9L
aL9L
aL9L
aL9L
aL9L
aL9L
aL9L
aL9L
aL9L
aL9L
aL9L
aL9L
aL9L
aL9L
aL9L
aL9L
aL9L
aL9L
aL9L
aL9L
aL9L
aL9L
aL9L
aL9L
aL9L
aL9L
aL9L
aL9L
aL9L
aL9L
aL9L
aL9L
aL9L
aL9L
aL9L
aL9L
aL9L
aL9L
aL9L
aL9L
aL9L
aL9L
aL9L
aL9L
aL9L
aL9L
aL9L
aL9L
aL9L
aL9L
aL9L
aL9L
aL9L
aL9L
aL9L
aL9L
aL9L
aL9L
aL9L
aL9L
aL9L
aL9L
aL9L
aL9L
aL9L
aL9L
aL9L
aL9L
aL9L
aL9L
aa(lp241
L0L
aL0L
aL0L
aL0L
aL0L
aL7L
aL7L
aL7L
aL5L
aL6L
aL7L
aL6L
aL5L
aL7L
aL0L
aL0L
aL0L
aL0L
aL0L
aL0L
aL0L
aL0L
aL0L
aL0L
aL0L
aL0L
aL0L
aL0L
aL0L
aL0L
aL0L
aL0L
aL0L
aL0L
aL0L
aL0L
aL7L
aL7L
aL3L
aL7L
aL6L
aL0L
aL7L
aL1L
aL1L
aL3L
aL0L
aL1L
aL3L
aL0L
aL0L
aL1L
aL3L
aL3L
aL2L
aL1L
aL3L
aL3L
aL2L
aL1L
aL2L
aL2L
aL3L
aL1L
aL3L
aL2L
aL0L
aL0L
aL2L
aL3L
aL0L
aL3L
aL0L
aL3L
aL0L
aL3L
aL0L
aL3L
aL3L
aL3L
aL2L
aL0L
aL3L
aL3L
aL1L
aL2L
aL0L
aL0L
aL1L
aL0L
aL0L
aL0L
aL3L
aL2L
aL1L
aL2L
aL1L
aL1L
aL1L
aL2L
aL1L
aL2L
aL2L
aL2L
aL3L
aL3L
aL3L
aL0L
aL0L
aL0L
aL9L
aL9L
aa(lp242
L0L
aL0L
aL0L
aL0L
aL7L
aL7L
aL7L
aL5L
aL5L
aL6L
aL5L
aL6L
aL5L
aL5L
aL7L
aL0L
aL0L
aL0L
aL0L
aL0L
aL0L
aL6L
aL0L
aL5L
aL5L
aL5L
aL0L
aL0L
aL6L
aL0L
aL6L
aL6L
aL5L
aL5L
aL5L
aL5L
aL6L
aL6L
aL6L
aL5L
aL5L
aL5L
aL3L
aL3L
aL3L
aL0L
aL3L
aL3L
aL3L
aL3L
aL3L
aL3L
aL3L
aL3L
aL3L
aL3L
aL3L
aL2L
aL3L
aL3L
aL3L
aL0L
aL3L
aL0L
aL3L
aL2L
aL3L
aL3L
aL0L
aL0L
aL0L
aL0L
aL0L
aL0L
aL0L
aL0L
aL0L
aL0L
aL0L
aL0L
aL0L
aL0L
aL0L
aL0L
aL0L
aL1L
aL1L
aL1L
aL1L
aL0L
aL0L
aL0L
aL0L
aL0L
aL0L
aL9L
aL9L
aL9L
aL9L
aL9L
aL9L
aL9L
aL9L
aL9L
aL9L
aL9L
aL9L
aL9L
aL9L
aL9L
aL9L
aL9L
aa(lp243
L0L
aL0L
aL0L
aL0L
aL0L
aL0L
aL0L
aL5L
aL7L
aL6L
aL5L
aL6L
aL5L
aL6L
aL6L
aL5L
aL3L
aL3L
aL3L
aL3L
aL3L
aL3L
aL3L
aL3L
aL3L
aL3L
aL3L
aL3L
aL3L
aL0L
aL3L
aL3L
aL3L
aL0L
aL7L
aL3L
aL3L
aL3L
aL3L
aL3L
aL3L
aL3L
aL3L
aL3L
aL3L
aL3L
aL3L
aL3L
aL3L
aL3L
aL3L
aL3L
aL3L
aL3L
aL0L
aL0L
aL0L
aL0L
aL3L
aL1L
aL4L
aL3L
aL3L
aL4L
aL3L
aL4L
aL3L
aL4L
aL3L
aL3L
aL3L
aL4L
aL3L
aL3L
aL3L
aL3L
aL3L
aL0L
aL2L
aL0L
aL1L
aL3L
aL1L
aL1L
aL3L
aL0L
aL0L
aL0L
aL0L
aL9L
aL9L
aL9L
aL9L
aL9L
aL9L
aL9L
aL9L
aL9L
aL9L
aL9L
aL9L
aL9L
aL9L
aL9L
aL9L
aL9L
aL9L
aL9L
aL9L
aL9L
aL9L
aL9L
aa(lp244
L0L
aL0L
aL7L
aL7L
aL7L
aL5L
aL7L
aL6L
aL6L
aL7L
aL6L
aL6L
aL6L
aL5L
aL6L
aL6L
aL5L
aL6L
aL5L
aL7L
aL6L
aL5L
aL6L
aL6L
aL6L
aL5L
aL5L
aL6L
aL6L
aL5L
aL6L
aL6L
aL5L
aL6L
aL5L
aL5L
aL6L
aL5L
aL5L
aL6L
aL5L
aL5L
aL6L
aL6L
aL7L
aL6L
aL0L
aL0L
aL7L
aL0L
aL5L
aL3L
aL3L
aL3L
aL3L
aL3L
aL3L
aL0L
aL3L
aL3L
aL3L
aL7L
aL2L
aL3L
aL3L
aL3L
aL3L
aL3L
aL3L
aL3L
aL2L
aL3L
aL3L
aL3L
aL3L
aL2L
aL2L
aL2L
aL2L
aL3L
aL3L
aL2L
aL3L
aL2L
aL0L
aL0L
aL0L
aL0L
aL0L
aL0L
aL0L
aL0L
aL3L
aL0L
aL0L
aL3L
aL0L
aL3L
aL2L
aL3L
aL2L
aL2L
aL3L
aL3L
aL0L
aL2L
aL3L
aL3L
aL0L
aL0L
aL0L
aL9L
aa.